
build/condition:     file format elf64-littleriscv


Disassembly of section .text:

00000000520a0000 <_start>:
    520a0000:	00002397          	auipc	t2,0x2
    520a0004:	93838393          	addi	t2,t2,-1736 # 520a1938 <__BSS_END__>
    520a0008:	00002317          	auipc	t1,0x2
    520a000c:	93030313          	addi	t1,t1,-1744 # 520a1938 <__BSS_END__>

00000000520a0010 <crt0_loop>:
    520a0010:	00734663          	blt	t1,t2,520a001c <crt0_endloop>
    520a0014:	00038023          	sb	zero,0(t2)
    520a0018:	0385                	addi	t2,t2,1
    520a001a:	bfdd                	j	520a0010 <crt0_loop>

00000000520a001c <crt0_endloop>:
    520a001c:	00000393          	li	t2,0
    520a0020:	00000313          	li	t1,0
    520a0024:	00000317          	auipc	t1,0x0
    520a0028:	04830313          	addi	t1,t1,72 # 520a006c <main>
    520a002c:	9302                	jalr	t1
    520a002e:	4d8000ef          	jal	ra,520a0506 <sys_exit>
    520a0032:	8082                	ret

00000000520a0034 <loop>:
    520a0034:	10500073          	wfi
    520a0038:	bff5                	j	520a0034 <loop>

00000000520a003a <_panic>:
    520a003a:	7179                	addi	sp,sp,-48
    520a003c:	f406                	sd	ra,40(sp)
    520a003e:	f022                	sd	s0,32(sp)
    520a0040:	1800                	addi	s0,sp,48
    520a0042:	fea43423          	sd	a0,-24(s0)
    520a0046:	87ae                	mv	a5,a1
    520a0048:	fcc43c23          	sd	a2,-40(s0)
    520a004c:	fef42223          	sw	a5,-28(s0)
    520a0050:	fe442783          	lw	a5,-28(s0)
    520a0054:	86be                	mv	a3,a5
    520a0056:	fe843603          	ld	a2,-24(s0)
    520a005a:	fd843583          	ld	a1,-40(s0)
    520a005e:	00001517          	auipc	a0,0x1
    520a0062:	7e250513          	addi	a0,a0,2018 # 520a1840 <strrev+0x9a>
    520a0066:	382010ef          	jal	ra,520a13e8 <printf>
    520a006a:	a001                	j	520a006a <_panic+0x30>

00000000520a006c <main>:
    520a006c:	712d                	addi	sp,sp,-288
    520a006e:	ee06                	sd	ra,280(sp)
    520a0070:	ea22                	sd	s0,272(sp)
    520a0072:	1200                	addi	s0,sp,288
    520a0074:	87aa                	mv	a5,a0
    520a0076:	eeb43023          	sd	a1,-288(s0)
    520a007a:	eef42623          	sw	a5,-276(s0)
    520a007e:	eec42783          	lw	a5,-276(s0)
    520a0082:	2781                	sext.w	a5,a5
    520a0084:	00f04d63          	bgtz	a5,520a009e <main+0x32>
    520a0088:	00002617          	auipc	a2,0x2
    520a008c:	8a060613          	addi	a2,a2,-1888 # 520a1928 <__DATA_BEGIN__>
    520a0090:	45c5                	li	a1,17
    520a0092:	00001517          	auipc	a0,0x1
    520a0096:	7d650513          	addi	a0,a0,2006 # 520a1868 <strrev+0xc2>
    520a009a:	fa1ff0ef          	jal	ra,520a003a <_panic>
    520a009e:	eec42783          	lw	a5,-276(s0)
    520a00a2:	0007871b          	sext.w	a4,a5
    520a00a6:	4785                	li	a5,1
    520a00a8:	00f70b63          	beq	a4,a5,520a00be <main+0x52>
    520a00ac:	ee043783          	ld	a5,-288(s0)
    520a00b0:	07a1                	addi	a5,a5,8
    520a00b2:	639c                	ld	a5,0(a5)
    520a00b4:	853e                	mv	a0,a5
    520a00b6:	34b000ef          	jal	ra,520a0c00 <atoi>
    520a00ba:	87aa                	mv	a5,a0
    520a00bc:	a011                	j	520a00c0 <main+0x54>
    520a00be:	4781                	li	a5,0
    520a00c0:	fef42223          	sw	a5,-28(s0)
    520a00c4:	03a00513          	li	a0,58
    520a00c8:	5f4000ef          	jal	ra,520a06bc <sys_condition_init>
    520a00cc:	87aa                	mv	a5,a0
    520a00ce:	fef42023          	sw	a5,-32(s0)
    520a00d2:	02a00513          	li	a0,42
    520a00d6:	2fc000ef          	jal	ra,520a03d2 <sys_mutex_init>
    520a00da:	87aa                	mv	a5,a0
    520a00dc:	fcf42e23          	sw	a5,-36(s0)
    520a00e0:	560007b7          	lui	a5,0x56000
    520a00e4:	0007a023          	sw	zero,0(a5) # 56000000 <__BSS_END__+0x3f5e6c8>
    520a00e8:	fa840713          	addi	a4,s0,-88
    520a00ec:	fe442783          	lw	a5,-28(s0)
    520a00f0:	46a9                	li	a3,10
    520a00f2:	4679                	li	a2,30
    520a00f4:	85ba                	mv	a1,a4
    520a00f6:	853e                	mv	a0,a5
    520a00f8:	32b000ef          	jal	ra,520a0c22 <itoa>
    520a00fc:	87aa                	mv	a5,a0
    520a00fe:	873e                	mv	a4,a5
    520a0100:	57fd                	li	a5,-1
    520a0102:	00f71e63          	bne	a4,a5,520a011e <main+0xb2>
    520a0106:	00002617          	auipc	a2,0x2
    520a010a:	82260613          	addi	a2,a2,-2014 # 520a1928 <__DATA_BEGIN__>
    520a010e:	02300593          	li	a1,35
    520a0112:	00001517          	auipc	a0,0x1
    520a0116:	75650513          	addi	a0,a0,1878 # 520a1868 <strrev+0xc2>
    520a011a:	f21ff0ef          	jal	ra,520a003a <_panic>
    520a011e:	f8840713          	addi	a4,s0,-120
    520a0122:	fe042783          	lw	a5,-32(s0)
    520a0126:	46a9                	li	a3,10
    520a0128:	4679                	li	a2,30
    520a012a:	85ba                	mv	a1,a4
    520a012c:	853e                	mv	a0,a5
    520a012e:	2f5000ef          	jal	ra,520a0c22 <itoa>
    520a0132:	87aa                	mv	a5,a0
    520a0134:	873e                	mv	a4,a5
    520a0136:	57fd                	li	a5,-1
    520a0138:	00f71e63          	bne	a4,a5,520a0154 <main+0xe8>
    520a013c:	00001617          	auipc	a2,0x1
    520a0140:	7ec60613          	addi	a2,a2,2028 # 520a1928 <__DATA_BEGIN__>
    520a0144:	02400593          	li	a1,36
    520a0148:	00001517          	auipc	a0,0x1
    520a014c:	72050513          	addi	a0,a0,1824 # 520a1868 <strrev+0xc2>
    520a0150:	eebff0ef          	jal	ra,520a003a <_panic>
    520a0154:	f6840713          	addi	a4,s0,-152
    520a0158:	fdc42783          	lw	a5,-36(s0)
    520a015c:	46a9                	li	a3,10
    520a015e:	4679                	li	a2,30
    520a0160:	85ba                	mv	a1,a4
    520a0162:	853e                	mv	a0,a5
    520a0164:	2bf000ef          	jal	ra,520a0c22 <itoa>
    520a0168:	87aa                	mv	a5,a0
    520a016a:	873e                	mv	a4,a5
    520a016c:	57fd                	li	a5,-1
    520a016e:	00f71e63          	bne	a4,a5,520a018a <main+0x11e>
    520a0172:	00001617          	auipc	a2,0x1
    520a0176:	7b660613          	addi	a2,a2,1974 # 520a1928 <__DATA_BEGIN__>
    520a017a:	02500593          	li	a1,37
    520a017e:	00001517          	auipc	a0,0x1
    520a0182:	6ea50513          	addi	a0,a0,1770 # 520a1868 <strrev+0xc2>
    520a0186:	eb5ff0ef          	jal	ra,520a003a <_panic>
    520a018a:	f4840793          	addi	a5,s0,-184
    520a018e:	46a9                	li	a3,10
    520a0190:	4679                	li	a2,30
    520a0192:	85be                	mv	a1,a5
    520a0194:	56000537          	lui	a0,0x56000
    520a0198:	28b000ef          	jal	ra,520a0c22 <itoa>
    520a019c:	87aa                	mv	a5,a0
    520a019e:	873e                	mv	a4,a5
    520a01a0:	57fd                	li	a5,-1
    520a01a2:	00f71e63          	bne	a4,a5,520a01be <main+0x152>
    520a01a6:	00001617          	auipc	a2,0x1
    520a01aa:	78260613          	addi	a2,a2,1922 # 520a1928 <__DATA_BEGIN__>
    520a01ae:	02600593          	li	a1,38
    520a01b2:	00001517          	auipc	a0,0x1
    520a01b6:	6b650513          	addi	a0,a0,1718 # 520a1868 <strrev+0xc2>
    520a01ba:	e81ff0ef          	jal	ra,520a003a <_panic>
    520a01be:	00001797          	auipc	a5,0x1
    520a01c2:	6ca78793          	addi	a5,a5,1738 # 520a1888 <strrev+0xe2>
    520a01c6:	f2f43023          	sd	a5,-224(s0)
    520a01ca:	fa840793          	addi	a5,s0,-88
    520a01ce:	f2f43423          	sd	a5,-216(s0)
    520a01d2:	f8840793          	addi	a5,s0,-120
    520a01d6:	f2f43823          	sd	a5,-208(s0)
    520a01da:	f6840793          	addi	a5,s0,-152
    520a01de:	f2f43c23          	sd	a5,-200(s0)
    520a01e2:	f4840793          	addi	a5,s0,-184
    520a01e6:	f4f43023          	sd	a5,-192(s0)
    520a01ea:	f2043783          	ld	a5,-224(s0)
    520a01ee:	f2040713          	addi	a4,s0,-224
    520a01f2:	863a                	mv	a2,a4
    520a01f4:	4595                	li	a1,5
    520a01f6:	853e                	mv	a0,a5
    520a01f8:	2d4000ef          	jal	ra,520a04cc <sys_exec>
    520a01fc:	87aa                	mv	a5,a0
    520a01fe:	fcf42423          	sw	a5,-56(s0)
    520a0202:	4785                	li	a5,1
    520a0204:	fef42623          	sw	a5,-20(s0)
    520a0208:	a871                	j	520a02a4 <main+0x238>
    520a020a:	fe442703          	lw	a4,-28(s0)
    520a020e:	fec42783          	lw	a5,-20(s0)
    520a0212:	9fb9                	addw	a5,a5,a4
    520a0214:	2781                	sext.w	a5,a5
    520a0216:	fa840713          	addi	a4,s0,-88
    520a021a:	46a9                	li	a3,10
    520a021c:	4679                	li	a2,30
    520a021e:	85ba                	mv	a1,a4
    520a0220:	853e                	mv	a0,a5
    520a0222:	201000ef          	jal	ra,520a0c22 <itoa>
    520a0226:	87aa                	mv	a5,a0
    520a0228:	873e                	mv	a4,a5
    520a022a:	57fd                	li	a5,-1
    520a022c:	00f71e63          	bne	a4,a5,520a0248 <main+0x1dc>
    520a0230:	00001617          	auipc	a2,0x1
    520a0234:	6f860613          	addi	a2,a2,1784 # 520a1928 <__DATA_BEGIN__>
    520a0238:	03400593          	li	a1,52
    520a023c:	00001517          	auipc	a0,0x1
    520a0240:	62c50513          	addi	a0,a0,1580 # 520a1868 <strrev+0xc2>
    520a0244:	df7ff0ef          	jal	ra,520a003a <_panic>
    520a0248:	00001797          	auipc	a5,0x1
    520a024c:	65078793          	addi	a5,a5,1616 # 520a1898 <strrev+0xf2>
    520a0250:	eef43c23          	sd	a5,-264(s0)
    520a0254:	fa840793          	addi	a5,s0,-88
    520a0258:	f0f43023          	sd	a5,-256(s0)
    520a025c:	f8840793          	addi	a5,s0,-120
    520a0260:	f0f43423          	sd	a5,-248(s0)
    520a0264:	f6840793          	addi	a5,s0,-152
    520a0268:	f0f43823          	sd	a5,-240(s0)
    520a026c:	f4840793          	addi	a5,s0,-184
    520a0270:	f0f43c23          	sd	a5,-232(s0)
    520a0274:	ef843783          	ld	a5,-264(s0)
    520a0278:	ef840713          	addi	a4,s0,-264
    520a027c:	863a                	mv	a2,a4
    520a027e:	4595                	li	a1,5
    520a0280:	853e                	mv	a0,a5
    520a0282:	24a000ef          	jal	ra,520a04cc <sys_exec>
    520a0286:	87aa                	mv	a5,a0
    520a0288:	873e                	mv	a4,a5
    520a028a:	fec42783          	lw	a5,-20(s0)
    520a028e:	078a                	slli	a5,a5,0x2
    520a0290:	ff040693          	addi	a3,s0,-16
    520a0294:	97b6                	add	a5,a5,a3
    520a0296:	fce7ac23          	sw	a4,-40(a5)
    520a029a:	fec42783          	lw	a5,-20(s0)
    520a029e:	2785                	addiw	a5,a5,1
    520a02a0:	fef42623          	sw	a5,-20(s0)
    520a02a4:	fec42783          	lw	a5,-20(s0)
    520a02a8:	0007871b          	sext.w	a4,a5
    520a02ac:	478d                	li	a5,3
    520a02ae:	f4e7dee3          	bge	a5,a4,520a020a <main+0x19e>
    520a02b2:	fe042423          	sw	zero,-24(s0)
    520a02b6:	a00d                	j	520a02d8 <main+0x26c>
    520a02b8:	fe842783          	lw	a5,-24(s0)
    520a02bc:	078a                	slli	a5,a5,0x2
    520a02be:	ff040713          	addi	a4,s0,-16
    520a02c2:	97ba                	add	a5,a5,a4
    520a02c4:	fd87a783          	lw	a5,-40(a5)
    520a02c8:	853e                	mv	a0,a5
    520a02ca:	28c000ef          	jal	ra,520a0556 <sys_waitpid>
    520a02ce:	fe842783          	lw	a5,-24(s0)
    520a02d2:	2785                	addiw	a5,a5,1
    520a02d4:	fef42423          	sw	a5,-24(s0)
    520a02d8:	fe842783          	lw	a5,-24(s0)
    520a02dc:	0007871b          	sext.w	a4,a5
    520a02e0:	478d                	li	a5,3
    520a02e2:	fce7dbe3          	bge	a5,a4,520a02b8 <main+0x24c>
    520a02e6:	fe042783          	lw	a5,-32(s0)
    520a02ea:	853e                	mv	a0,a5
    520a02ec:	42a000ef          	jal	ra,520a0716 <sys_condition_destroy>
    520a02f0:	4781                	li	a5,0
    520a02f2:	853e                	mv	a0,a5
    520a02f4:	60f2                	ld	ra,280(sp)
    520a02f6:	6452                	ld	s0,272(sp)
    520a02f8:	6115                	addi	sp,sp,288
    520a02fa:	8082                	ret

00000000520a02fc <invoke_syscall>:
    520a02fc:	715d                	addi	sp,sp,-80
    520a02fe:	e4a2                	sd	s0,72(sp)
    520a0300:	0880                	addi	s0,sp,80
    520a0302:	fca43c23          	sd	a0,-40(s0)
    520a0306:	fcb43823          	sd	a1,-48(s0)
    520a030a:	fcc43423          	sd	a2,-56(s0)
    520a030e:	fcd43023          	sd	a3,-64(s0)
    520a0312:	fae43c23          	sd	a4,-72(s0)
    520a0316:	faf43823          	sd	a5,-80(s0)
    520a031a:	00000073          	ecall
    520a031e:	87aa                	mv	a5,a0
    520a0320:	0001                	nop
    520a0322:	fef43423          	sd	a5,-24(s0)
    520a0326:	fe843783          	ld	a5,-24(s0)
    520a032a:	853e                	mv	a0,a5
    520a032c:	6426                	ld	s0,72(sp)
    520a032e:	6161                	addi	sp,sp,80
    520a0330:	8082                	ret

00000000520a0332 <sys_yield>:
    520a0332:	1141                	addi	sp,sp,-16
    520a0334:	e406                	sd	ra,8(sp)
    520a0336:	e022                	sd	s0,0(sp)
    520a0338:	0800                	addi	s0,sp,16
    520a033a:	4781                	li	a5,0
    520a033c:	4701                	li	a4,0
    520a033e:	4681                	li	a3,0
    520a0340:	4601                	li	a2,0
    520a0342:	4581                	li	a1,0
    520a0344:	451d                	li	a0,7
    520a0346:	fb7ff0ef          	jal	ra,520a02fc <invoke_syscall>
    520a034a:	0001                	nop
    520a034c:	60a2                	ld	ra,8(sp)
    520a034e:	6402                	ld	s0,0(sp)
    520a0350:	0141                	addi	sp,sp,16
    520a0352:	8082                	ret

00000000520a0354 <sys_move_cursor>:
    520a0354:	1101                	addi	sp,sp,-32
    520a0356:	ec06                	sd	ra,24(sp)
    520a0358:	e822                	sd	s0,16(sp)
    520a035a:	1000                	addi	s0,sp,32
    520a035c:	87aa                	mv	a5,a0
    520a035e:	872e                	mv	a4,a1
    520a0360:	fef42623          	sw	a5,-20(s0)
    520a0364:	87ba                	mv	a5,a4
    520a0366:	fef42423          	sw	a5,-24(s0)
    520a036a:	fec42583          	lw	a1,-20(s0)
    520a036e:	fe842603          	lw	a2,-24(s0)
    520a0372:	4681                	li	a3,0
    520a0374:	4701                	li	a4,0
    520a0376:	4781                	li	a5,0
    520a0378:	4559                	li	a0,22
    520a037a:	f83ff0ef          	jal	ra,520a02fc <invoke_syscall>
    520a037e:	0001                	nop
    520a0380:	60e2                	ld	ra,24(sp)
    520a0382:	6442                	ld	s0,16(sp)
    520a0384:	6105                	addi	sp,sp,32
    520a0386:	8082                	ret

00000000520a0388 <sys_write>:
    520a0388:	1101                	addi	sp,sp,-32
    520a038a:	ec06                	sd	ra,24(sp)
    520a038c:	e822                	sd	s0,16(sp)
    520a038e:	1000                	addi	s0,sp,32
    520a0390:	fea43423          	sd	a0,-24(s0)
    520a0394:	fe843583          	ld	a1,-24(s0)
    520a0398:	4601                	li	a2,0
    520a039a:	4681                	li	a3,0
    520a039c:	4701                	li	a4,0
    520a039e:	4781                	li	a5,0
    520a03a0:	4551                	li	a0,20
    520a03a2:	f5bff0ef          	jal	ra,520a02fc <invoke_syscall>
    520a03a6:	0001                	nop
    520a03a8:	60e2                	ld	ra,24(sp)
    520a03aa:	6442                	ld	s0,16(sp)
    520a03ac:	6105                	addi	sp,sp,32
    520a03ae:	8082                	ret

00000000520a03b0 <sys_reflush>:
    520a03b0:	1141                	addi	sp,sp,-16
    520a03b2:	e406                	sd	ra,8(sp)
    520a03b4:	e022                	sd	s0,0(sp)
    520a03b6:	0800                	addi	s0,sp,16
    520a03b8:	4581                	li	a1,0
    520a03ba:	4601                	li	a2,0
    520a03bc:	4681                	li	a3,0
    520a03be:	4701                	li	a4,0
    520a03c0:	4781                	li	a5,0
    520a03c2:	455d                	li	a0,23
    520a03c4:	f39ff0ef          	jal	ra,520a02fc <invoke_syscall>
    520a03c8:	0001                	nop
    520a03ca:	60a2                	ld	ra,8(sp)
    520a03cc:	6402                	ld	s0,0(sp)
    520a03ce:	0141                	addi	sp,sp,16
    520a03d0:	8082                	ret

00000000520a03d2 <sys_mutex_init>:
    520a03d2:	1101                	addi	sp,sp,-32
    520a03d4:	ec06                	sd	ra,24(sp)
    520a03d6:	e822                	sd	s0,16(sp)
    520a03d8:	1000                	addi	s0,sp,32
    520a03da:	87aa                	mv	a5,a0
    520a03dc:	fef42623          	sw	a5,-20(s0)
    520a03e0:	fec42583          	lw	a1,-20(s0)
    520a03e4:	4601                	li	a2,0
    520a03e6:	4681                	li	a3,0
    520a03e8:	4701                	li	a4,0
    520a03ea:	4781                	li	a5,0
    520a03ec:	02800513          	li	a0,40
    520a03f0:	f0dff0ef          	jal	ra,520a02fc <invoke_syscall>
    520a03f4:	87aa                	mv	a5,a0
    520a03f6:	2781                	sext.w	a5,a5
    520a03f8:	853e                	mv	a0,a5
    520a03fa:	60e2                	ld	ra,24(sp)
    520a03fc:	6442                	ld	s0,16(sp)
    520a03fe:	6105                	addi	sp,sp,32
    520a0400:	8082                	ret

00000000520a0402 <sys_mutex_acquire>:
    520a0402:	1101                	addi	sp,sp,-32
    520a0404:	ec06                	sd	ra,24(sp)
    520a0406:	e822                	sd	s0,16(sp)
    520a0408:	1000                	addi	s0,sp,32
    520a040a:	87aa                	mv	a5,a0
    520a040c:	fef42623          	sw	a5,-20(s0)
    520a0410:	fec42583          	lw	a1,-20(s0)
    520a0414:	4601                	li	a2,0
    520a0416:	4681                	li	a3,0
    520a0418:	4701                	li	a4,0
    520a041a:	4781                	li	a5,0
    520a041c:	02900513          	li	a0,41
    520a0420:	eddff0ef          	jal	ra,520a02fc <invoke_syscall>
    520a0424:	0001                	nop
    520a0426:	60e2                	ld	ra,24(sp)
    520a0428:	6442                	ld	s0,16(sp)
    520a042a:	6105                	addi	sp,sp,32
    520a042c:	8082                	ret

00000000520a042e <sys_mutex_release>:
    520a042e:	1101                	addi	sp,sp,-32
    520a0430:	ec06                	sd	ra,24(sp)
    520a0432:	e822                	sd	s0,16(sp)
    520a0434:	1000                	addi	s0,sp,32
    520a0436:	87aa                	mv	a5,a0
    520a0438:	fef42623          	sw	a5,-20(s0)
    520a043c:	fec42583          	lw	a1,-20(s0)
    520a0440:	4601                	li	a2,0
    520a0442:	4681                	li	a3,0
    520a0444:	4701                	li	a4,0
    520a0446:	4781                	li	a5,0
    520a0448:	02a00513          	li	a0,42
    520a044c:	eb1ff0ef          	jal	ra,520a02fc <invoke_syscall>
    520a0450:	0001                	nop
    520a0452:	60e2                	ld	ra,24(sp)
    520a0454:	6442                	ld	s0,16(sp)
    520a0456:	6105                	addi	sp,sp,32
    520a0458:	8082                	ret

00000000520a045a <sys_get_timebase>:
    520a045a:	1141                	addi	sp,sp,-16
    520a045c:	e406                	sd	ra,8(sp)
    520a045e:	e022                	sd	s0,0(sp)
    520a0460:	0800                	addi	s0,sp,16
    520a0462:	4581                	li	a1,0
    520a0464:	4601                	li	a2,0
    520a0466:	4681                	li	a3,0
    520a0468:	4701                	li	a4,0
    520a046a:	4781                	li	a5,0
    520a046c:	4579                	li	a0,30
    520a046e:	e8fff0ef          	jal	ra,520a02fc <invoke_syscall>
    520a0472:	87aa                	mv	a5,a0
    520a0474:	853e                	mv	a0,a5
    520a0476:	60a2                	ld	ra,8(sp)
    520a0478:	6402                	ld	s0,0(sp)
    520a047a:	0141                	addi	sp,sp,16
    520a047c:	8082                	ret

00000000520a047e <sys_get_tick>:
    520a047e:	1141                	addi	sp,sp,-16
    520a0480:	e406                	sd	ra,8(sp)
    520a0482:	e022                	sd	s0,0(sp)
    520a0484:	0800                	addi	s0,sp,16
    520a0486:	4581                	li	a1,0
    520a0488:	4601                	li	a2,0
    520a048a:	4681                	li	a3,0
    520a048c:	4701                	li	a4,0
    520a048e:	4781                	li	a5,0
    520a0490:	457d                	li	a0,31
    520a0492:	e6bff0ef          	jal	ra,520a02fc <invoke_syscall>
    520a0496:	87aa                	mv	a5,a0
    520a0498:	853e                	mv	a0,a5
    520a049a:	60a2                	ld	ra,8(sp)
    520a049c:	6402                	ld	s0,0(sp)
    520a049e:	0141                	addi	sp,sp,16
    520a04a0:	8082                	ret

00000000520a04a2 <sys_sleep>:
    520a04a2:	1101                	addi	sp,sp,-32
    520a04a4:	ec06                	sd	ra,24(sp)
    520a04a6:	e822                	sd	s0,16(sp)
    520a04a8:	1000                	addi	s0,sp,32
    520a04aa:	87aa                	mv	a5,a0
    520a04ac:	fef42623          	sw	a5,-20(s0)
    520a04b0:	fec46583          	lwu	a1,-20(s0)
    520a04b4:	4601                	li	a2,0
    520a04b6:	4681                	li	a3,0
    520a04b8:	4701                	li	a4,0
    520a04ba:	4781                	li	a5,0
    520a04bc:	4509                	li	a0,2
    520a04be:	e3fff0ef          	jal	ra,520a02fc <invoke_syscall>
    520a04c2:	0001                	nop
    520a04c4:	60e2                	ld	ra,24(sp)
    520a04c6:	6442                	ld	s0,16(sp)
    520a04c8:	6105                	addi	sp,sp,32
    520a04ca:	8082                	ret

00000000520a04cc <sys_exec>:
    520a04cc:	7179                	addi	sp,sp,-48
    520a04ce:	f406                	sd	ra,40(sp)
    520a04d0:	f022                	sd	s0,32(sp)
    520a04d2:	1800                	addi	s0,sp,48
    520a04d4:	fea43423          	sd	a0,-24(s0)
    520a04d8:	87ae                	mv	a5,a1
    520a04da:	fcc43c23          	sd	a2,-40(s0)
    520a04de:	fef42223          	sw	a5,-28(s0)
    520a04e2:	fe843583          	ld	a1,-24(s0)
    520a04e6:	fe442603          	lw	a2,-28(s0)
    520a04ea:	fd843683          	ld	a3,-40(s0)
    520a04ee:	4701                	li	a4,0
    520a04f0:	4781                	li	a5,0
    520a04f2:	4501                	li	a0,0
    520a04f4:	e09ff0ef          	jal	ra,520a02fc <invoke_syscall>
    520a04f8:	87aa                	mv	a5,a0
    520a04fa:	2781                	sext.w	a5,a5
    520a04fc:	853e                	mv	a0,a5
    520a04fe:	70a2                	ld	ra,40(sp)
    520a0500:	7402                	ld	s0,32(sp)
    520a0502:	6145                	addi	sp,sp,48
    520a0504:	8082                	ret

00000000520a0506 <sys_exit>:
    520a0506:	1141                	addi	sp,sp,-16
    520a0508:	e406                	sd	ra,8(sp)
    520a050a:	e022                	sd	s0,0(sp)
    520a050c:	0800                	addi	s0,sp,16
    520a050e:	4581                	li	a1,0
    520a0510:	4601                	li	a2,0
    520a0512:	4681                	li	a3,0
    520a0514:	4701                	li	a4,0
    520a0516:	4781                	li	a5,0
    520a0518:	4505                	li	a0,1
    520a051a:	de3ff0ef          	jal	ra,520a02fc <invoke_syscall>
    520a051e:	0001                	nop
    520a0520:	60a2                	ld	ra,8(sp)
    520a0522:	6402                	ld	s0,0(sp)
    520a0524:	0141                	addi	sp,sp,16
    520a0526:	8082                	ret

00000000520a0528 <sys_kill>:
    520a0528:	1101                	addi	sp,sp,-32
    520a052a:	ec06                	sd	ra,24(sp)
    520a052c:	e822                	sd	s0,16(sp)
    520a052e:	1000                	addi	s0,sp,32
    520a0530:	87aa                	mv	a5,a0
    520a0532:	fef42623          	sw	a5,-20(s0)
    520a0536:	fec42583          	lw	a1,-20(s0)
    520a053a:	4601                	li	a2,0
    520a053c:	4681                	li	a3,0
    520a053e:	4701                	li	a4,0
    520a0540:	4781                	li	a5,0
    520a0542:	450d                	li	a0,3
    520a0544:	db9ff0ef          	jal	ra,520a02fc <invoke_syscall>
    520a0548:	87aa                	mv	a5,a0
    520a054a:	2781                	sext.w	a5,a5
    520a054c:	853e                	mv	a0,a5
    520a054e:	60e2                	ld	ra,24(sp)
    520a0550:	6442                	ld	s0,16(sp)
    520a0552:	6105                	addi	sp,sp,32
    520a0554:	8082                	ret

00000000520a0556 <sys_waitpid>:
    520a0556:	1101                	addi	sp,sp,-32
    520a0558:	ec06                	sd	ra,24(sp)
    520a055a:	e822                	sd	s0,16(sp)
    520a055c:	1000                	addi	s0,sp,32
    520a055e:	87aa                	mv	a5,a0
    520a0560:	fef42623          	sw	a5,-20(s0)
    520a0564:	fec42583          	lw	a1,-20(s0)
    520a0568:	4601                	li	a2,0
    520a056a:	4681                	li	a3,0
    520a056c:	4701                	li	a4,0
    520a056e:	4781                	li	a5,0
    520a0570:	4511                	li	a0,4
    520a0572:	d8bff0ef          	jal	ra,520a02fc <invoke_syscall>
    520a0576:	87aa                	mv	a5,a0
    520a0578:	2781                	sext.w	a5,a5
    520a057a:	853e                	mv	a0,a5
    520a057c:	60e2                	ld	ra,24(sp)
    520a057e:	6442                	ld	s0,16(sp)
    520a0580:	6105                	addi	sp,sp,32
    520a0582:	8082                	ret

00000000520a0584 <sys_ps>:
    520a0584:	1141                	addi	sp,sp,-16
    520a0586:	e406                	sd	ra,8(sp)
    520a0588:	e022                	sd	s0,0(sp)
    520a058a:	0800                	addi	s0,sp,16
    520a058c:	4581                	li	a1,0
    520a058e:	4601                	li	a2,0
    520a0590:	4681                	li	a3,0
    520a0592:	4701                	li	a4,0
    520a0594:	4781                	li	a5,0
    520a0596:	4515                	li	a0,5
    520a0598:	d65ff0ef          	jal	ra,520a02fc <invoke_syscall>
    520a059c:	87aa                	mv	a5,a0
    520a059e:	2781                	sext.w	a5,a5
    520a05a0:	853e                	mv	a0,a5
    520a05a2:	60a2                	ld	ra,8(sp)
    520a05a4:	6402                	ld	s0,0(sp)
    520a05a6:	0141                	addi	sp,sp,16
    520a05a8:	8082                	ret

00000000520a05aa <sys_clear>:
    520a05aa:	1101                	addi	sp,sp,-32
    520a05ac:	ec06                	sd	ra,24(sp)
    520a05ae:	e822                	sd	s0,16(sp)
    520a05b0:	1000                	addi	s0,sp,32
    520a05b2:	87aa                	mv	a5,a0
    520a05b4:	872e                	mv	a4,a1
    520a05b6:	fef42623          	sw	a5,-20(s0)
    520a05ba:	87ba                	mv	a5,a4
    520a05bc:	fef42423          	sw	a5,-24(s0)
    520a05c0:	fec42583          	lw	a1,-20(s0)
    520a05c4:	fe842603          	lw	a2,-24(s0)
    520a05c8:	4681                	li	a3,0
    520a05ca:	4701                	li	a4,0
    520a05cc:	4781                	li	a5,0
    520a05ce:	4561                	li	a0,24
    520a05d0:	d2dff0ef          	jal	ra,520a02fc <invoke_syscall>
    520a05d4:	0001                	nop
    520a05d6:	60e2                	ld	ra,24(sp)
    520a05d8:	6442                	ld	s0,16(sp)
    520a05da:	6105                	addi	sp,sp,32
    520a05dc:	8082                	ret

00000000520a05de <sys_getpid>:
    520a05de:	1141                	addi	sp,sp,-16
    520a05e0:	e406                	sd	ra,8(sp)
    520a05e2:	e022                	sd	s0,0(sp)
    520a05e4:	0800                	addi	s0,sp,16
    520a05e6:	4581                	li	a1,0
    520a05e8:	4601                	li	a2,0
    520a05ea:	4681                	li	a3,0
    520a05ec:	4701                	li	a4,0
    520a05ee:	4781                	li	a5,0
    520a05f0:	4519                	li	a0,6
    520a05f2:	d0bff0ef          	jal	ra,520a02fc <invoke_syscall>
    520a05f6:	87aa                	mv	a5,a0
    520a05f8:	2781                	sext.w	a5,a5
    520a05fa:	853e                	mv	a0,a5
    520a05fc:	60a2                	ld	ra,8(sp)
    520a05fe:	6402                	ld	s0,0(sp)
    520a0600:	0141                	addi	sp,sp,16
    520a0602:	8082                	ret

00000000520a0604 <sys_getchar>:
    520a0604:	1141                	addi	sp,sp,-16
    520a0606:	e406                	sd	ra,8(sp)
    520a0608:	e022                	sd	s0,0(sp)
    520a060a:	0800                	addi	s0,sp,16
    520a060c:	4581                	li	a1,0
    520a060e:	4601                	li	a2,0
    520a0610:	4681                	li	a3,0
    520a0612:	4701                	li	a4,0
    520a0614:	4781                	li	a5,0
    520a0616:	4555                	li	a0,21
    520a0618:	ce5ff0ef          	jal	ra,520a02fc <invoke_syscall>
    520a061c:	87aa                	mv	a5,a0
    520a061e:	2781                	sext.w	a5,a5
    520a0620:	853e                	mv	a0,a5
    520a0622:	60a2                	ld	ra,8(sp)
    520a0624:	6402                	ld	s0,0(sp)
    520a0626:	0141                	addi	sp,sp,16
    520a0628:	8082                	ret

00000000520a062a <sys_barrier_init>:
    520a062a:	1101                	addi	sp,sp,-32
    520a062c:	ec06                	sd	ra,24(sp)
    520a062e:	e822                	sd	s0,16(sp)
    520a0630:	1000                	addi	s0,sp,32
    520a0632:	87aa                	mv	a5,a0
    520a0634:	872e                	mv	a4,a1
    520a0636:	fef42623          	sw	a5,-20(s0)
    520a063a:	87ba                	mv	a5,a4
    520a063c:	fef42423          	sw	a5,-24(s0)
    520a0640:	fec42583          	lw	a1,-20(s0)
    520a0644:	fe842603          	lw	a2,-24(s0)
    520a0648:	4681                	li	a3,0
    520a064a:	4701                	li	a4,0
    520a064c:	4781                	li	a5,0
    520a064e:	02c00513          	li	a0,44
    520a0652:	cabff0ef          	jal	ra,520a02fc <invoke_syscall>
    520a0656:	87aa                	mv	a5,a0
    520a0658:	2781                	sext.w	a5,a5
    520a065a:	853e                	mv	a0,a5
    520a065c:	60e2                	ld	ra,24(sp)
    520a065e:	6442                	ld	s0,16(sp)
    520a0660:	6105                	addi	sp,sp,32
    520a0662:	8082                	ret

00000000520a0664 <sys_barrier_wait>:
    520a0664:	1101                	addi	sp,sp,-32
    520a0666:	ec06                	sd	ra,24(sp)
    520a0668:	e822                	sd	s0,16(sp)
    520a066a:	1000                	addi	s0,sp,32
    520a066c:	87aa                	mv	a5,a0
    520a066e:	fef42623          	sw	a5,-20(s0)
    520a0672:	fec42583          	lw	a1,-20(s0)
    520a0676:	4601                	li	a2,0
    520a0678:	4681                	li	a3,0
    520a067a:	4701                	li	a4,0
    520a067c:	4781                	li	a5,0
    520a067e:	02d00513          	li	a0,45
    520a0682:	c7bff0ef          	jal	ra,520a02fc <invoke_syscall>
    520a0686:	0001                	nop
    520a0688:	60e2                	ld	ra,24(sp)
    520a068a:	6442                	ld	s0,16(sp)
    520a068c:	6105                	addi	sp,sp,32
    520a068e:	8082                	ret

00000000520a0690 <sys_barrier_destroy>:
    520a0690:	1101                	addi	sp,sp,-32
    520a0692:	ec06                	sd	ra,24(sp)
    520a0694:	e822                	sd	s0,16(sp)
    520a0696:	1000                	addi	s0,sp,32
    520a0698:	87aa                	mv	a5,a0
    520a069a:	fef42623          	sw	a5,-20(s0)
    520a069e:	fec42583          	lw	a1,-20(s0)
    520a06a2:	4601                	li	a2,0
    520a06a4:	4681                	li	a3,0
    520a06a6:	4701                	li	a4,0
    520a06a8:	4781                	li	a5,0
    520a06aa:	02e00513          	li	a0,46
    520a06ae:	c4fff0ef          	jal	ra,520a02fc <invoke_syscall>
    520a06b2:	0001                	nop
    520a06b4:	60e2                	ld	ra,24(sp)
    520a06b6:	6442                	ld	s0,16(sp)
    520a06b8:	6105                	addi	sp,sp,32
    520a06ba:	8082                	ret

00000000520a06bc <sys_condition_init>:
    520a06bc:	1101                	addi	sp,sp,-32
    520a06be:	ec22                	sd	s0,24(sp)
    520a06c0:	1000                	addi	s0,sp,32
    520a06c2:	87aa                	mv	a5,a0
    520a06c4:	fef42623          	sw	a5,-20(s0)
    520a06c8:	0001                	nop
    520a06ca:	853e                	mv	a0,a5
    520a06cc:	6462                	ld	s0,24(sp)
    520a06ce:	6105                	addi	sp,sp,32
    520a06d0:	8082                	ret

00000000520a06d2 <sys_condition_wait>:
    520a06d2:	1101                	addi	sp,sp,-32
    520a06d4:	ec22                	sd	s0,24(sp)
    520a06d6:	1000                	addi	s0,sp,32
    520a06d8:	87aa                	mv	a5,a0
    520a06da:	872e                	mv	a4,a1
    520a06dc:	fef42623          	sw	a5,-20(s0)
    520a06e0:	87ba                	mv	a5,a4
    520a06e2:	fef42423          	sw	a5,-24(s0)
    520a06e6:	0001                	nop
    520a06e8:	6462                	ld	s0,24(sp)
    520a06ea:	6105                	addi	sp,sp,32
    520a06ec:	8082                	ret

00000000520a06ee <sys_condition_signal>:
    520a06ee:	1101                	addi	sp,sp,-32
    520a06f0:	ec22                	sd	s0,24(sp)
    520a06f2:	1000                	addi	s0,sp,32
    520a06f4:	87aa                	mv	a5,a0
    520a06f6:	fef42623          	sw	a5,-20(s0)
    520a06fa:	0001                	nop
    520a06fc:	6462                	ld	s0,24(sp)
    520a06fe:	6105                	addi	sp,sp,32
    520a0700:	8082                	ret

00000000520a0702 <sys_condition_broadcast>:
    520a0702:	1101                	addi	sp,sp,-32
    520a0704:	ec22                	sd	s0,24(sp)
    520a0706:	1000                	addi	s0,sp,32
    520a0708:	87aa                	mv	a5,a0
    520a070a:	fef42623          	sw	a5,-20(s0)
    520a070e:	0001                	nop
    520a0710:	6462                	ld	s0,24(sp)
    520a0712:	6105                	addi	sp,sp,32
    520a0714:	8082                	ret

00000000520a0716 <sys_condition_destroy>:
    520a0716:	1101                	addi	sp,sp,-32
    520a0718:	ec22                	sd	s0,24(sp)
    520a071a:	1000                	addi	s0,sp,32
    520a071c:	87aa                	mv	a5,a0
    520a071e:	fef42623          	sw	a5,-20(s0)
    520a0722:	0001                	nop
    520a0724:	6462                	ld	s0,24(sp)
    520a0726:	6105                	addi	sp,sp,32
    520a0728:	8082                	ret

00000000520a072a <sys_semaphore_init>:
    520a072a:	1101                	addi	sp,sp,-32
    520a072c:	ec06                	sd	ra,24(sp)
    520a072e:	e822                	sd	s0,16(sp)
    520a0730:	1000                	addi	s0,sp,32
    520a0732:	87aa                	mv	a5,a0
    520a0734:	872e                	mv	a4,a1
    520a0736:	fef42623          	sw	a5,-20(s0)
    520a073a:	87ba                	mv	a5,a4
    520a073c:	fef42423          	sw	a5,-24(s0)
    520a0740:	fec42583          	lw	a1,-20(s0)
    520a0744:	fe842603          	lw	a2,-24(s0)
    520a0748:	4681                	li	a3,0
    520a074a:	4701                	li	a4,0
    520a074c:	4781                	li	a5,0
    520a074e:	02400513          	li	a0,36
    520a0752:	babff0ef          	jal	ra,520a02fc <invoke_syscall>
    520a0756:	87aa                	mv	a5,a0
    520a0758:	2781                	sext.w	a5,a5
    520a075a:	853e                	mv	a0,a5
    520a075c:	60e2                	ld	ra,24(sp)
    520a075e:	6442                	ld	s0,16(sp)
    520a0760:	6105                	addi	sp,sp,32
    520a0762:	8082                	ret

00000000520a0764 <sys_semaphore_up>:
    520a0764:	1101                	addi	sp,sp,-32
    520a0766:	ec06                	sd	ra,24(sp)
    520a0768:	e822                	sd	s0,16(sp)
    520a076a:	1000                	addi	s0,sp,32
    520a076c:	87aa                	mv	a5,a0
    520a076e:	fef42623          	sw	a5,-20(s0)
    520a0772:	fec42583          	lw	a1,-20(s0)
    520a0776:	4601                	li	a2,0
    520a0778:	4681                	li	a3,0
    520a077a:	4701                	li	a4,0
    520a077c:	4781                	li	a5,0
    520a077e:	02500513          	li	a0,37
    520a0782:	b7bff0ef          	jal	ra,520a02fc <invoke_syscall>
    520a0786:	0001                	nop
    520a0788:	60e2                	ld	ra,24(sp)
    520a078a:	6442                	ld	s0,16(sp)
    520a078c:	6105                	addi	sp,sp,32
    520a078e:	8082                	ret

00000000520a0790 <sys_semaphore_down>:
    520a0790:	1101                	addi	sp,sp,-32
    520a0792:	ec06                	sd	ra,24(sp)
    520a0794:	e822                	sd	s0,16(sp)
    520a0796:	1000                	addi	s0,sp,32
    520a0798:	87aa                	mv	a5,a0
    520a079a:	fef42623          	sw	a5,-20(s0)
    520a079e:	fec42583          	lw	a1,-20(s0)
    520a07a2:	4601                	li	a2,0
    520a07a4:	4681                	li	a3,0
    520a07a6:	4701                	li	a4,0
    520a07a8:	4781                	li	a5,0
    520a07aa:	02600513          	li	a0,38
    520a07ae:	b4fff0ef          	jal	ra,520a02fc <invoke_syscall>
    520a07b2:	0001                	nop
    520a07b4:	60e2                	ld	ra,24(sp)
    520a07b6:	6442                	ld	s0,16(sp)
    520a07b8:	6105                	addi	sp,sp,32
    520a07ba:	8082                	ret

00000000520a07bc <sys_semaphore_destroy>:
    520a07bc:	1101                	addi	sp,sp,-32
    520a07be:	ec06                	sd	ra,24(sp)
    520a07c0:	e822                	sd	s0,16(sp)
    520a07c2:	1000                	addi	s0,sp,32
    520a07c4:	87aa                	mv	a5,a0
    520a07c6:	fef42623          	sw	a5,-20(s0)
    520a07ca:	fec42583          	lw	a1,-20(s0)
    520a07ce:	4601                	li	a2,0
    520a07d0:	4681                	li	a3,0
    520a07d2:	4701                	li	a4,0
    520a07d4:	4781                	li	a5,0
    520a07d6:	02700513          	li	a0,39
    520a07da:	b23ff0ef          	jal	ra,520a02fc <invoke_syscall>
    520a07de:	0001                	nop
    520a07e0:	60e2                	ld	ra,24(sp)
    520a07e2:	6442                	ld	s0,16(sp)
    520a07e4:	6105                	addi	sp,sp,32
    520a07e6:	8082                	ret

00000000520a07e8 <sys_mbox_open>:
    520a07e8:	1101                	addi	sp,sp,-32
    520a07ea:	ec06                	sd	ra,24(sp)
    520a07ec:	e822                	sd	s0,16(sp)
    520a07ee:	1000                	addi	s0,sp,32
    520a07f0:	fea43423          	sd	a0,-24(s0)
    520a07f4:	fe843583          	ld	a1,-24(s0)
    520a07f8:	4601                	li	a2,0
    520a07fa:	4681                	li	a3,0
    520a07fc:	4701                	li	a4,0
    520a07fe:	4781                	li	a5,0
    520a0800:	03400513          	li	a0,52
    520a0804:	af9ff0ef          	jal	ra,520a02fc <invoke_syscall>
    520a0808:	87aa                	mv	a5,a0
    520a080a:	2781                	sext.w	a5,a5
    520a080c:	853e                	mv	a0,a5
    520a080e:	60e2                	ld	ra,24(sp)
    520a0810:	6442                	ld	s0,16(sp)
    520a0812:	6105                	addi	sp,sp,32
    520a0814:	8082                	ret

00000000520a0816 <sys_mbox_close>:
    520a0816:	1101                	addi	sp,sp,-32
    520a0818:	ec06                	sd	ra,24(sp)
    520a081a:	e822                	sd	s0,16(sp)
    520a081c:	1000                	addi	s0,sp,32
    520a081e:	87aa                	mv	a5,a0
    520a0820:	fef42623          	sw	a5,-20(s0)
    520a0824:	fec42583          	lw	a1,-20(s0)
    520a0828:	4601                	li	a2,0
    520a082a:	4681                	li	a3,0
    520a082c:	4701                	li	a4,0
    520a082e:	4781                	li	a5,0
    520a0830:	03500513          	li	a0,53
    520a0834:	ac9ff0ef          	jal	ra,520a02fc <invoke_syscall>
    520a0838:	0001                	nop
    520a083a:	60e2                	ld	ra,24(sp)
    520a083c:	6442                	ld	s0,16(sp)
    520a083e:	6105                	addi	sp,sp,32
    520a0840:	8082                	ret

00000000520a0842 <sys_mbox_send>:
    520a0842:	1101                	addi	sp,sp,-32
    520a0844:	ec06                	sd	ra,24(sp)
    520a0846:	e822                	sd	s0,16(sp)
    520a0848:	1000                	addi	s0,sp,32
    520a084a:	87aa                	mv	a5,a0
    520a084c:	feb43023          	sd	a1,-32(s0)
    520a0850:	8732                	mv	a4,a2
    520a0852:	fef42623          	sw	a5,-20(s0)
    520a0856:	87ba                	mv	a5,a4
    520a0858:	fef42423          	sw	a5,-24(s0)
    520a085c:	fec42583          	lw	a1,-20(s0)
    520a0860:	fe043603          	ld	a2,-32(s0)
    520a0864:	fe842683          	lw	a3,-24(s0)
    520a0868:	4701                	li	a4,0
    520a086a:	4781                	li	a5,0
    520a086c:	03600513          	li	a0,54
    520a0870:	a8dff0ef          	jal	ra,520a02fc <invoke_syscall>
    520a0874:	87aa                	mv	a5,a0
    520a0876:	2781                	sext.w	a5,a5
    520a0878:	853e                	mv	a0,a5
    520a087a:	60e2                	ld	ra,24(sp)
    520a087c:	6442                	ld	s0,16(sp)
    520a087e:	6105                	addi	sp,sp,32
    520a0880:	8082                	ret

00000000520a0882 <sys_mbox_recv>:
    520a0882:	1101                	addi	sp,sp,-32
    520a0884:	ec06                	sd	ra,24(sp)
    520a0886:	e822                	sd	s0,16(sp)
    520a0888:	1000                	addi	s0,sp,32
    520a088a:	87aa                	mv	a5,a0
    520a088c:	feb43023          	sd	a1,-32(s0)
    520a0890:	8732                	mv	a4,a2
    520a0892:	fef42623          	sw	a5,-20(s0)
    520a0896:	87ba                	mv	a5,a4
    520a0898:	fef42423          	sw	a5,-24(s0)
    520a089c:	fec42583          	lw	a1,-20(s0)
    520a08a0:	fe043603          	ld	a2,-32(s0)
    520a08a4:	fe842683          	lw	a3,-24(s0)
    520a08a8:	4701                	li	a4,0
    520a08aa:	4781                	li	a5,0
    520a08ac:	03700513          	li	a0,55
    520a08b0:	a4dff0ef          	jal	ra,520a02fc <invoke_syscall>
    520a08b4:	87aa                	mv	a5,a0
    520a08b6:	2781                	sext.w	a5,a5
    520a08b8:	853e                	mv	a0,a5
    520a08ba:	60e2                	ld	ra,24(sp)
    520a08bc:	6442                	ld	s0,16(sp)
    520a08be:	6105                	addi	sp,sp,32
    520a08c0:	8082                	ret

00000000520a08c2 <sys_task_set_p>:
    520a08c2:	1101                	addi	sp,sp,-32
    520a08c4:	ec06                	sd	ra,24(sp)
    520a08c6:	e822                	sd	s0,16(sp)
    520a08c8:	1000                	addi	s0,sp,32
    520a08ca:	87aa                	mv	a5,a0
    520a08cc:	872e                	mv	a4,a1
    520a08ce:	fef42623          	sw	a5,-20(s0)
    520a08d2:	87ba                	mv	a5,a4
    520a08d4:	fef42423          	sw	a5,-24(s0)
    520a08d8:	fec42583          	lw	a1,-20(s0)
    520a08dc:	fe842603          	lw	a2,-24(s0)
    520a08e0:	4681                	li	a3,0
    520a08e2:	4701                	li	a4,0
    520a08e4:	4781                	li	a5,0
    520a08e6:	03900513          	li	a0,57
    520a08ea:	a13ff0ef          	jal	ra,520a02fc <invoke_syscall>
    520a08ee:	0001                	nop
    520a08f0:	60e2                	ld	ra,24(sp)
    520a08f2:	6442                	ld	s0,16(sp)
    520a08f4:	6105                	addi	sp,sp,32
    520a08f6:	8082                	ret

00000000520a08f8 <sys_task_set>:
    520a08f8:	7179                	addi	sp,sp,-48
    520a08fa:	f406                	sd	ra,40(sp)
    520a08fc:	f022                	sd	s0,32(sp)
    520a08fe:	1800                	addi	s0,sp,48
    520a0900:	87aa                	mv	a5,a0
    520a0902:	feb43023          	sd	a1,-32(s0)
    520a0906:	8732                	mv	a4,a2
    520a0908:	fcd43c23          	sd	a3,-40(s0)
    520a090c:	fef42623          	sw	a5,-20(s0)
    520a0910:	87ba                	mv	a5,a4
    520a0912:	fef42423          	sw	a5,-24(s0)
    520a0916:	fec42583          	lw	a1,-20(s0)
    520a091a:	fe043603          	ld	a2,-32(s0)
    520a091e:	fe842683          	lw	a3,-24(s0)
    520a0922:	fd843703          	ld	a4,-40(s0)
    520a0926:	4781                	li	a5,0
    520a0928:	03800513          	li	a0,56
    520a092c:	9d1ff0ef          	jal	ra,520a02fc <invoke_syscall>
    520a0930:	87aa                	mv	a5,a0
    520a0932:	2781                	sext.w	a5,a5
    520a0934:	853e                	mv	a0,a5
    520a0936:	70a2                	ld	ra,40(sp)
    520a0938:	7402                	ld	s0,32(sp)
    520a093a:	6145                	addi	sp,sp,48
    520a093c:	8082                	ret

00000000520a093e <isdigit>:
    520a093e:	1101                	addi	sp,sp,-32
    520a0940:	ec22                	sd	s0,24(sp)
    520a0942:	1000                	addi	s0,sp,32
    520a0944:	87aa                	mv	a5,a0
    520a0946:	fef42623          	sw	a5,-20(s0)
    520a094a:	fec42783          	lw	a5,-20(s0)
    520a094e:	0007871b          	sext.w	a4,a5
    520a0952:	02f00793          	li	a5,47
    520a0956:	00e7dc63          	bge	a5,a4,520a096e <isdigit+0x30>
    520a095a:	fec42783          	lw	a5,-20(s0)
    520a095e:	0007871b          	sext.w	a4,a5
    520a0962:	03900793          	li	a5,57
    520a0966:	00e7c463          	blt	a5,a4,520a096e <isdigit+0x30>
    520a096a:	4785                	li	a5,1
    520a096c:	a011                	j	520a0970 <isdigit+0x32>
    520a096e:	4781                	li	a5,0
    520a0970:	853e                	mv	a0,a5
    520a0972:	6462                	ld	s0,24(sp)
    520a0974:	6105                	addi	sp,sp,32
    520a0976:	8082                	ret

00000000520a0978 <isspace>:
    520a0978:	1101                	addi	sp,sp,-32
    520a097a:	ec22                	sd	s0,24(sp)
    520a097c:	1000                	addi	s0,sp,32
    520a097e:	87aa                	mv	a5,a0
    520a0980:	fef42623          	sw	a5,-20(s0)
    520a0984:	fec42783          	lw	a5,-20(s0)
    520a0988:	0007871b          	sext.w	a4,a5
    520a098c:	02000793          	li	a5,32
    520a0990:	04f70563          	beq	a4,a5,520a09da <isspace+0x62>
    520a0994:	fec42783          	lw	a5,-20(s0)
    520a0998:	0007871b          	sext.w	a4,a5
    520a099c:	47a5                	li	a5,9
    520a099e:	02f70e63          	beq	a4,a5,520a09da <isspace+0x62>
    520a09a2:	fec42783          	lw	a5,-20(s0)
    520a09a6:	0007871b          	sext.w	a4,a5
    520a09aa:	47a9                	li	a5,10
    520a09ac:	02f70763          	beq	a4,a5,520a09da <isspace+0x62>
    520a09b0:	fec42783          	lw	a5,-20(s0)
    520a09b4:	0007871b          	sext.w	a4,a5
    520a09b8:	47ad                	li	a5,11
    520a09ba:	02f70063          	beq	a4,a5,520a09da <isspace+0x62>
    520a09be:	fec42783          	lw	a5,-20(s0)
    520a09c2:	0007871b          	sext.w	a4,a5
    520a09c6:	47b1                	li	a5,12
    520a09c8:	00f70963          	beq	a4,a5,520a09da <isspace+0x62>
    520a09cc:	fec42783          	lw	a5,-20(s0)
    520a09d0:	0007871b          	sext.w	a4,a5
    520a09d4:	47b5                	li	a5,13
    520a09d6:	00f71463          	bne	a4,a5,520a09de <isspace+0x66>
    520a09da:	4785                	li	a5,1
    520a09dc:	a011                	j	520a09e0 <isspace+0x68>
    520a09de:	4781                	li	a5,0
    520a09e0:	853e                	mv	a0,a5
    520a09e2:	6462                	ld	s0,24(sp)
    520a09e4:	6105                	addi	sp,sp,32
    520a09e6:	8082                	ret

00000000520a09e8 <atol>:
    520a09e8:	7179                	addi	sp,sp,-48
    520a09ea:	f406                	sd	ra,40(sp)
    520a09ec:	f022                	sd	s0,32(sp)
    520a09ee:	1800                	addi	s0,sp,48
    520a09f0:	fca43c23          	sd	a0,-40(s0)
    520a09f4:	fe043423          	sd	zero,-24(s0)
    520a09f8:	fe042223          	sw	zero,-28(s0)
    520a09fc:	47a9                	li	a5,10
    520a09fe:	fef42023          	sw	a5,-32(s0)
    520a0a02:	fd843783          	ld	a5,-40(s0)
    520a0a06:	e399                	bnez	a5,520a0a0c <atol+0x24>
    520a0a08:	4781                	li	a5,0
    520a0a0a:	a2f5                	j	520a0bf6 <atol+0x20e>
    520a0a0c:	0001                	nop
    520a0a0e:	fd843783          	ld	a5,-40(s0)
    520a0a12:	0007c783          	lbu	a5,0(a5)
    520a0a16:	2781                	sext.w	a5,a5
    520a0a18:	853e                	mv	a0,a5
    520a0a1a:	f5fff0ef          	jal	ra,520a0978 <isspace>
    520a0a1e:	87aa                	mv	a5,a0
    520a0a20:	f7fd                	bnez	a5,520a0a0e <atol+0x26>
    520a0a22:	fd843783          	ld	a5,-40(s0)
    520a0a26:	0007c783          	lbu	a5,0(a5)
    520a0a2a:	873e                	mv	a4,a5
    520a0a2c:	02b00793          	li	a5,43
    520a0a30:	00f71a63          	bne	a4,a5,520a0a44 <atol+0x5c>
    520a0a34:	fe042223          	sw	zero,-28(s0)
    520a0a38:	fd843783          	ld	a5,-40(s0)
    520a0a3c:	0785                	addi	a5,a5,1
    520a0a3e:	fcf43c23          	sd	a5,-40(s0)
    520a0a42:	a091                	j	520a0a86 <atol+0x9e>
    520a0a44:	fd843783          	ld	a5,-40(s0)
    520a0a48:	0007c783          	lbu	a5,0(a5)
    520a0a4c:	873e                	mv	a4,a5
    520a0a4e:	02d00793          	li	a5,45
    520a0a52:	00f71b63          	bne	a4,a5,520a0a68 <atol+0x80>
    520a0a56:	4785                	li	a5,1
    520a0a58:	fef42223          	sw	a5,-28(s0)
    520a0a5c:	fd843783          	ld	a5,-40(s0)
    520a0a60:	0785                	addi	a5,a5,1
    520a0a62:	fcf43c23          	sd	a5,-40(s0)
    520a0a66:	a005                	j	520a0a86 <atol+0x9e>
    520a0a68:	fd843783          	ld	a5,-40(s0)
    520a0a6c:	0007c783          	lbu	a5,0(a5)
    520a0a70:	2781                	sext.w	a5,a5
    520a0a72:	853e                	mv	a0,a5
    520a0a74:	ecbff0ef          	jal	ra,520a093e <isdigit>
    520a0a78:	87aa                	mv	a5,a0
    520a0a7a:	c781                	beqz	a5,520a0a82 <atol+0x9a>
    520a0a7c:	fe042223          	sw	zero,-28(s0)
    520a0a80:	a019                	j	520a0a86 <atol+0x9e>
    520a0a82:	4781                	li	a5,0
    520a0a84:	aa8d                	j	520a0bf6 <atol+0x20e>
    520a0a86:	fd843783          	ld	a5,-40(s0)
    520a0a8a:	0007c783          	lbu	a5,0(a5)
    520a0a8e:	873e                	mv	a4,a5
    520a0a90:	03000793          	li	a5,48
    520a0a94:	00f71c63          	bne	a4,a5,520a0aac <atol+0xc4>
    520a0a98:	fd843783          	ld	a5,-40(s0)
    520a0a9c:	0785                	addi	a5,a5,1
    520a0a9e:	0007c783          	lbu	a5,0(a5)
    520a0aa2:	873e                	mv	a4,a5
    520a0aa4:	07800793          	li	a5,120
    520a0aa8:	02f70563          	beq	a4,a5,520a0ad2 <atol+0xea>
    520a0aac:	fd843783          	ld	a5,-40(s0)
    520a0ab0:	0007c783          	lbu	a5,0(a5)
    520a0ab4:	873e                	mv	a4,a5
    520a0ab6:	03000793          	li	a5,48
    520a0aba:	10f71e63          	bne	a4,a5,520a0bd6 <atol+0x1ee>
    520a0abe:	fd843783          	ld	a5,-40(s0)
    520a0ac2:	0785                	addi	a5,a5,1
    520a0ac4:	0007c783          	lbu	a5,0(a5)
    520a0ac8:	873e                	mv	a4,a5
    520a0aca:	05800793          	li	a5,88
    520a0ace:	10f71463          	bne	a4,a5,520a0bd6 <atol+0x1ee>
    520a0ad2:	47c1                	li	a5,16
    520a0ad4:	fef42023          	sw	a5,-32(s0)
    520a0ad8:	fd843783          	ld	a5,-40(s0)
    520a0adc:	0785                	addi	a5,a5,1
    520a0ade:	fcf43c23          	sd	a5,-40(s0)
    520a0ae2:	fd843783          	ld	a5,-40(s0)
    520a0ae6:	0785                	addi	a5,a5,1
    520a0ae8:	fcf43c23          	sd	a5,-40(s0)
    520a0aec:	a0ed                	j	520a0bd6 <atol+0x1ee>
    520a0aee:	fd843783          	ld	a5,-40(s0)
    520a0af2:	0007c783          	lbu	a5,0(a5)
    520a0af6:	2781                	sext.w	a5,a5
    520a0af8:	853e                	mv	a0,a5
    520a0afa:	e45ff0ef          	jal	ra,520a093e <isdigit>
    520a0afe:	87aa                	mv	a5,a0
    520a0b00:	c39d                	beqz	a5,520a0b26 <atol+0x13e>
    520a0b02:	fe042703          	lw	a4,-32(s0)
    520a0b06:	fe843783          	ld	a5,-24(s0)
    520a0b0a:	02f707b3          	mul	a5,a4,a5
    520a0b0e:	fd843703          	ld	a4,-40(s0)
    520a0b12:	00074703          	lbu	a4,0(a4)
    520a0b16:	2701                	sext.w	a4,a4
    520a0b18:	fd07071b          	addiw	a4,a4,-48
    520a0b1c:	2701                	sext.w	a4,a4
    520a0b1e:	97ba                	add	a5,a5,a4
    520a0b20:	fef43423          	sd	a5,-24(s0)
    520a0b24:	a065                	j	520a0bcc <atol+0x1e4>
    520a0b26:	fe042783          	lw	a5,-32(s0)
    520a0b2a:	0007871b          	sext.w	a4,a5
    520a0b2e:	47c1                	li	a5,16
    520a0b30:	08f71c63          	bne	a4,a5,520a0bc8 <atol+0x1e0>
    520a0b34:	fd843783          	ld	a5,-40(s0)
    520a0b38:	0007c783          	lbu	a5,0(a5)
    520a0b3c:	873e                	mv	a4,a5
    520a0b3e:	06000793          	li	a5,96
    520a0b42:	02e7fd63          	bgeu	a5,a4,520a0b7c <atol+0x194>
    520a0b46:	fd843783          	ld	a5,-40(s0)
    520a0b4a:	0007c783          	lbu	a5,0(a5)
    520a0b4e:	873e                	mv	a4,a5
    520a0b50:	06600793          	li	a5,102
    520a0b54:	02e7e463          	bltu	a5,a4,520a0b7c <atol+0x194>
    520a0b58:	fe042703          	lw	a4,-32(s0)
    520a0b5c:	fe843783          	ld	a5,-24(s0)
    520a0b60:	02f707b3          	mul	a5,a4,a5
    520a0b64:	fd843703          	ld	a4,-40(s0)
    520a0b68:	00074703          	lbu	a4,0(a4)
    520a0b6c:	2701                	sext.w	a4,a4
    520a0b6e:	fa97071b          	addiw	a4,a4,-87
    520a0b72:	2701                	sext.w	a4,a4
    520a0b74:	97ba                	add	a5,a5,a4
    520a0b76:	fef43423          	sd	a5,-24(s0)
    520a0b7a:	a889                	j	520a0bcc <atol+0x1e4>
    520a0b7c:	fd843783          	ld	a5,-40(s0)
    520a0b80:	0007c783          	lbu	a5,0(a5)
    520a0b84:	873e                	mv	a4,a5
    520a0b86:	04000793          	li	a5,64
    520a0b8a:	02e7fd63          	bgeu	a5,a4,520a0bc4 <atol+0x1dc>
    520a0b8e:	fd843783          	ld	a5,-40(s0)
    520a0b92:	0007c783          	lbu	a5,0(a5)
    520a0b96:	873e                	mv	a4,a5
    520a0b98:	04600793          	li	a5,70
    520a0b9c:	02e7e463          	bltu	a5,a4,520a0bc4 <atol+0x1dc>
    520a0ba0:	fe042703          	lw	a4,-32(s0)
    520a0ba4:	fe843783          	ld	a5,-24(s0)
    520a0ba8:	02f707b3          	mul	a5,a4,a5
    520a0bac:	fd843703          	ld	a4,-40(s0)
    520a0bb0:	00074703          	lbu	a4,0(a4)
    520a0bb4:	2701                	sext.w	a4,a4
    520a0bb6:	fc97071b          	addiw	a4,a4,-55
    520a0bba:	2701                	sext.w	a4,a4
    520a0bbc:	97ba                	add	a5,a5,a4
    520a0bbe:	fef43423          	sd	a5,-24(s0)
    520a0bc2:	a029                	j	520a0bcc <atol+0x1e4>
    520a0bc4:	4781                	li	a5,0
    520a0bc6:	a805                	j	520a0bf6 <atol+0x20e>
    520a0bc8:	4781                	li	a5,0
    520a0bca:	a035                	j	520a0bf6 <atol+0x20e>
    520a0bcc:	fd843783          	ld	a5,-40(s0)
    520a0bd0:	0785                	addi	a5,a5,1
    520a0bd2:	fcf43c23          	sd	a5,-40(s0)
    520a0bd6:	fd843783          	ld	a5,-40(s0)
    520a0bda:	0007c783          	lbu	a5,0(a5)
    520a0bde:	fb81                	bnez	a5,520a0aee <atol+0x106>
    520a0be0:	fe442783          	lw	a5,-28(s0)
    520a0be4:	2781                	sext.w	a5,a5
    520a0be6:	c791                	beqz	a5,520a0bf2 <atol+0x20a>
    520a0be8:	fe843783          	ld	a5,-24(s0)
    520a0bec:	40f007b3          	neg	a5,a5
    520a0bf0:	a019                	j	520a0bf6 <atol+0x20e>
    520a0bf2:	fe843783          	ld	a5,-24(s0)
    520a0bf6:	853e                	mv	a0,a5
    520a0bf8:	70a2                	ld	ra,40(sp)
    520a0bfa:	7402                	ld	s0,32(sp)
    520a0bfc:	6145                	addi	sp,sp,48
    520a0bfe:	8082                	ret

00000000520a0c00 <atoi>:
    520a0c00:	1101                	addi	sp,sp,-32
    520a0c02:	ec06                	sd	ra,24(sp)
    520a0c04:	e822                	sd	s0,16(sp)
    520a0c06:	1000                	addi	s0,sp,32
    520a0c08:	fea43423          	sd	a0,-24(s0)
    520a0c0c:	fe843503          	ld	a0,-24(s0)
    520a0c10:	dd9ff0ef          	jal	ra,520a09e8 <atol>
    520a0c14:	87aa                	mv	a5,a0
    520a0c16:	2781                	sext.w	a5,a5
    520a0c18:	853e                	mv	a0,a5
    520a0c1a:	60e2                	ld	ra,24(sp)
    520a0c1c:	6442                	ld	s0,16(sp)
    520a0c1e:	6105                	addi	sp,sp,32
    520a0c20:	8082                	ret

00000000520a0c22 <itoa>:
    520a0c22:	7139                	addi	sp,sp,-64
    520a0c24:	fc06                	sd	ra,56(sp)
    520a0c26:	f822                	sd	s0,48(sp)
    520a0c28:	0080                	addi	s0,sp,64
    520a0c2a:	87aa                	mv	a5,a0
    520a0c2c:	fcb43823          	sd	a1,-48(s0)
    520a0c30:	8736                	mv	a4,a3
    520a0c32:	fcf42e23          	sw	a5,-36(s0)
    520a0c36:	87b2                	mv	a5,a2
    520a0c38:	fcf42c23          	sw	a5,-40(s0)
    520a0c3c:	87ba                	mv	a5,a4
    520a0c3e:	fcf42623          	sw	a5,-52(s0)
    520a0c42:	fdc42783          	lw	a5,-36(s0)
    520a0c46:	fef42623          	sw	a5,-20(s0)
    520a0c4a:	fe042423          	sw	zero,-24(s0)
    520a0c4e:	fd842783          	lw	a5,-40(s0)
    520a0c52:	2781                	sext.w	a5,a5
    520a0c54:	e399                	bnez	a5,520a0c5a <itoa+0x38>
    520a0c56:	57fd                	li	a5,-1
    520a0c58:	a8d9                	j	520a0d2e <itoa+0x10c>
    520a0c5a:	fec42703          	lw	a4,-20(s0)
    520a0c5e:	fcc42783          	lw	a5,-52(s0)
    520a0c62:	02f767bb          	remw	a5,a4,a5
    520a0c66:	fef42223          	sw	a5,-28(s0)
    520a0c6a:	fe442783          	lw	a5,-28(s0)
    520a0c6e:	0007871b          	sext.w	a4,a5
    520a0c72:	47a5                	li	a5,9
    520a0c74:	02e7c763          	blt	a5,a4,520a0ca2 <itoa+0x80>
    520a0c78:	fe442783          	lw	a5,-28(s0)
    520a0c7c:	0ff7f713          	andi	a4,a5,255
    520a0c80:	fe842783          	lw	a5,-24(s0)
    520a0c84:	0017869b          	addiw	a3,a5,1
    520a0c88:	fed42423          	sw	a3,-24(s0)
    520a0c8c:	86be                	mv	a3,a5
    520a0c8e:	fd043783          	ld	a5,-48(s0)
    520a0c92:	97b6                	add	a5,a5,a3
    520a0c94:	0307071b          	addiw	a4,a4,48
    520a0c98:	0ff77713          	andi	a4,a4,255
    520a0c9c:	00e78023          	sb	a4,0(a5)
    520a0ca0:	a02d                	j	520a0cca <itoa+0xa8>
    520a0ca2:	fe442783          	lw	a5,-28(s0)
    520a0ca6:	0ff7f713          	andi	a4,a5,255
    520a0caa:	fe842783          	lw	a5,-24(s0)
    520a0cae:	0017869b          	addiw	a3,a5,1
    520a0cb2:	fed42423          	sw	a3,-24(s0)
    520a0cb6:	86be                	mv	a3,a5
    520a0cb8:	fd043783          	ld	a5,-48(s0)
    520a0cbc:	97b6                	add	a5,a5,a3
    520a0cbe:	0377071b          	addiw	a4,a4,55
    520a0cc2:	0ff77713          	andi	a4,a4,255
    520a0cc6:	00e78023          	sb	a4,0(a5)
    520a0cca:	fec42703          	lw	a4,-20(s0)
    520a0cce:	fcc42783          	lw	a5,-52(s0)
    520a0cd2:	02f747bb          	divw	a5,a4,a5
    520a0cd6:	fef42623          	sw	a5,-20(s0)
    520a0cda:	fec42783          	lw	a5,-20(s0)
    520a0cde:	2781                	sext.w	a5,a5
    520a0ce0:	cb99                	beqz	a5,520a0cf6 <itoa+0xd4>
    520a0ce2:	fd842783          	lw	a5,-40(s0)
    520a0ce6:	37fd                	addiw	a5,a5,-1
    520a0ce8:	0007871b          	sext.w	a4,a5
    520a0cec:	fe842783          	lw	a5,-24(s0)
    520a0cf0:	2781                	sext.w	a5,a5
    520a0cf2:	f6e7c4e3          	blt	a5,a4,520a0c5a <itoa+0x38>
    520a0cf6:	fd842783          	lw	a5,-40(s0)
    520a0cfa:	37fd                	addiw	a5,a5,-1
    520a0cfc:	0007871b          	sext.w	a4,a5
    520a0d00:	fe842783          	lw	a5,-24(s0)
    520a0d04:	2781                	sext.w	a5,a5
    520a0d06:	00e79863          	bne	a5,a4,520a0d16 <itoa+0xf4>
    520a0d0a:	fec42783          	lw	a5,-20(s0)
    520a0d0e:	2781                	sext.w	a5,a5
    520a0d10:	c399                	beqz	a5,520a0d16 <itoa+0xf4>
    520a0d12:	57fd                	li	a5,-1
    520a0d14:	a829                	j	520a0d2e <itoa+0x10c>
    520a0d16:	fe842783          	lw	a5,-24(s0)
    520a0d1a:	fd043703          	ld	a4,-48(s0)
    520a0d1e:	97ba                	add	a5,a5,a4
    520a0d20:	00078023          	sb	zero,0(a5)
    520a0d24:	fd043503          	ld	a0,-48(s0)
    520a0d28:	27f000ef          	jal	ra,520a17a6 <strrev>
    520a0d2c:	4781                	li	a5,0
    520a0d2e:	853e                	mv	a0,a5
    520a0d30:	70e2                	ld	ra,56(sp)
    520a0d32:	7442                	ld	s0,48(sp)
    520a0d34:	6121                	addi	sp,sp,64
    520a0d36:	8082                	ret

00000000520a0d38 <mini_itoa>:
    520a0d38:	715d                	addi	sp,sp,-80
    520a0d3a:	e4a2                	sd	s0,72(sp)
    520a0d3c:	0880                	addi	s0,sp,80
    520a0d3e:	fca43423          	sd	a0,-56(s0)
    520a0d42:	fae43823          	sd	a4,-80(s0)
    520a0d46:	873e                	mv	a4,a5
    520a0d48:	87ae                	mv	a5,a1
    520a0d4a:	fcf42223          	sw	a5,-60(s0)
    520a0d4e:	87b2                	mv	a5,a2
    520a0d50:	fcf42023          	sw	a5,-64(s0)
    520a0d54:	87b6                	mv	a5,a3
    520a0d56:	faf42e23          	sw	a5,-68(s0)
    520a0d5a:	87ba                	mv	a5,a4
    520a0d5c:	faf42c23          	sw	a5,-72(s0)
    520a0d60:	fb043783          	ld	a5,-80(s0)
    520a0d64:	fef43423          	sd	a5,-24(s0)
    520a0d68:	fe042223          	sw	zero,-28(s0)
    520a0d6c:	fc442783          	lw	a5,-60(s0)
    520a0d70:	0007871b          	sext.w	a4,a5
    520a0d74:	47c1                	li	a5,16
    520a0d76:	00e7f463          	bgeu	a5,a4,520a0d7e <mini_itoa+0x46>
    520a0d7a:	4781                	li	a5,0
    520a0d7c:	a255                	j	520a0f20 <mini_itoa+0x1e8>
    520a0d7e:	fc843783          	ld	a5,-56(s0)
    520a0d82:	0007df63          	bgez	a5,520a0da0 <mini_itoa+0x68>
    520a0d86:	fbc42783          	lw	a5,-68(s0)
    520a0d8a:	2781                	sext.w	a5,a5
    520a0d8c:	eb91                	bnez	a5,520a0da0 <mini_itoa+0x68>
    520a0d8e:	4785                	li	a5,1
    520a0d90:	fef42223          	sw	a5,-28(s0)
    520a0d94:	fc843783          	ld	a5,-56(s0)
    520a0d98:	40f007b3          	neg	a5,a5
    520a0d9c:	fcf43423          	sd	a5,-56(s0)
    520a0da0:	fc446783          	lwu	a5,-60(s0)
    520a0da4:	fc843703          	ld	a4,-56(s0)
    520a0da8:	02f767b3          	rem	a5,a4,a5
    520a0dac:	fcf42e23          	sw	a5,-36(s0)
    520a0db0:	fdc42783          	lw	a5,-36(s0)
    520a0db4:	0007871b          	sext.w	a4,a5
    520a0db8:	47a5                	li	a5,9
    520a0dba:	00e7cb63          	blt	a5,a4,520a0dd0 <mini_itoa+0x98>
    520a0dbe:	fdc42783          	lw	a5,-36(s0)
    520a0dc2:	0ff7f793          	andi	a5,a5,255
    520a0dc6:	0307879b          	addiw	a5,a5,48
    520a0dca:	0ff7f713          	andi	a4,a5,255
    520a0dce:	a025                	j	520a0df6 <mini_itoa+0xbe>
    520a0dd0:	fc042783          	lw	a5,-64(s0)
    520a0dd4:	2781                	sext.w	a5,a5
    520a0dd6:	c781                	beqz	a5,520a0dde <mini_itoa+0xa6>
    520a0dd8:	04100793          	li	a5,65
    520a0ddc:	a019                	j	520a0de2 <mini_itoa+0xaa>
    520a0dde:	06100793          	li	a5,97
    520a0de2:	fdc42703          	lw	a4,-36(s0)
    520a0de6:	0ff77713          	andi	a4,a4,255
    520a0dea:	9fb9                	addw	a5,a5,a4
    520a0dec:	0ff7f793          	andi	a5,a5,255
    520a0df0:	37d9                	addiw	a5,a5,-10
    520a0df2:	0ff7f713          	andi	a4,a5,255
    520a0df6:	fe843783          	ld	a5,-24(s0)
    520a0dfa:	00178693          	addi	a3,a5,1
    520a0dfe:	fed43423          	sd	a3,-24(s0)
    520a0e02:	00e78023          	sb	a4,0(a5)
    520a0e06:	fc446783          	lwu	a5,-60(s0)
    520a0e0a:	fc843703          	ld	a4,-56(s0)
    520a0e0e:	02f747b3          	div	a5,a4,a5
    520a0e12:	fcf43423          	sd	a5,-56(s0)
    520a0e16:	fc843783          	ld	a5,-56(s0)
    520a0e1a:	f8f043e3          	bgtz	a5,520a0da0 <mini_itoa+0x68>
    520a0e1e:	fe843703          	ld	a4,-24(s0)
    520a0e22:	fb043783          	ld	a5,-80(s0)
    520a0e26:	40f707b3          	sub	a5,a4,a5
    520a0e2a:	fef42023          	sw	a5,-32(s0)
    520a0e2e:	a005                	j	520a0e4e <mini_itoa+0x116>
    520a0e30:	fe843783          	ld	a5,-24(s0)
    520a0e34:	00178713          	addi	a4,a5,1
    520a0e38:	fee43423          	sd	a4,-24(s0)
    520a0e3c:	03000713          	li	a4,48
    520a0e40:	00e78023          	sb	a4,0(a5)
    520a0e44:	fe042783          	lw	a5,-32(s0)
    520a0e48:	2785                	addiw	a5,a5,1
    520a0e4a:	fef42023          	sw	a5,-32(s0)
    520a0e4e:	fe042703          	lw	a4,-32(s0)
    520a0e52:	fb842783          	lw	a5,-72(s0)
    520a0e56:	2701                	sext.w	a4,a4
    520a0e58:	2781                	sext.w	a5,a5
    520a0e5a:	fcf76be3          	bltu	a4,a5,520a0e30 <mini_itoa+0xf8>
    520a0e5e:	fe442783          	lw	a5,-28(s0)
    520a0e62:	2781                	sext.w	a5,a5
    520a0e64:	cb99                	beqz	a5,520a0e7a <mini_itoa+0x142>
    520a0e66:	fe843783          	ld	a5,-24(s0)
    520a0e6a:	00178713          	addi	a4,a5,1
    520a0e6e:	fee43423          	sd	a4,-24(s0)
    520a0e72:	02d00713          	li	a4,45
    520a0e76:	00e78023          	sb	a4,0(a5)
    520a0e7a:	fe843783          	ld	a5,-24(s0)
    520a0e7e:	00078023          	sb	zero,0(a5)
    520a0e82:	fe843703          	ld	a4,-24(s0)
    520a0e86:	fb043783          	ld	a5,-80(s0)
    520a0e8a:	40f707b3          	sub	a5,a4,a5
    520a0e8e:	fcf42c23          	sw	a5,-40(s0)
    520a0e92:	fe042023          	sw	zero,-32(s0)
    520a0e96:	a885                	j	520a0f06 <mini_itoa+0x1ce>
    520a0e98:	fe046783          	lwu	a5,-32(s0)
    520a0e9c:	fb043703          	ld	a4,-80(s0)
    520a0ea0:	97ba                	add	a5,a5,a4
    520a0ea2:	0007c783          	lbu	a5,0(a5)
    520a0ea6:	fcf40ba3          	sb	a5,-41(s0)
    520a0eaa:	fd842703          	lw	a4,-40(s0)
    520a0eae:	fe042783          	lw	a5,-32(s0)
    520a0eb2:	40f707bb          	subw	a5,a4,a5
    520a0eb6:	2781                	sext.w	a5,a5
    520a0eb8:	37fd                	addiw	a5,a5,-1
    520a0eba:	2781                	sext.w	a5,a5
    520a0ebc:	1782                	slli	a5,a5,0x20
    520a0ebe:	9381                	srli	a5,a5,0x20
    520a0ec0:	fb043703          	ld	a4,-80(s0)
    520a0ec4:	973e                	add	a4,a4,a5
    520a0ec6:	fe046783          	lwu	a5,-32(s0)
    520a0eca:	fb043683          	ld	a3,-80(s0)
    520a0ece:	97b6                	add	a5,a5,a3
    520a0ed0:	00074703          	lbu	a4,0(a4)
    520a0ed4:	00e78023          	sb	a4,0(a5)
    520a0ed8:	fd842703          	lw	a4,-40(s0)
    520a0edc:	fe042783          	lw	a5,-32(s0)
    520a0ee0:	40f707bb          	subw	a5,a4,a5
    520a0ee4:	2781                	sext.w	a5,a5
    520a0ee6:	37fd                	addiw	a5,a5,-1
    520a0ee8:	2781                	sext.w	a5,a5
    520a0eea:	1782                	slli	a5,a5,0x20
    520a0eec:	9381                	srli	a5,a5,0x20
    520a0eee:	fb043703          	ld	a4,-80(s0)
    520a0ef2:	97ba                	add	a5,a5,a4
    520a0ef4:	fd744703          	lbu	a4,-41(s0)
    520a0ef8:	00e78023          	sb	a4,0(a5)
    520a0efc:	fe042783          	lw	a5,-32(s0)
    520a0f00:	2785                	addiw	a5,a5,1
    520a0f02:	fef42023          	sw	a5,-32(s0)
    520a0f06:	fd842783          	lw	a5,-40(s0)
    520a0f0a:	0017d79b          	srliw	a5,a5,0x1
    520a0f0e:	0007871b          	sext.w	a4,a5
    520a0f12:	fe042783          	lw	a5,-32(s0)
    520a0f16:	2781                	sext.w	a5,a5
    520a0f18:	f8e7e0e3          	bltu	a5,a4,520a0e98 <mini_itoa+0x160>
    520a0f1c:	fd842783          	lw	a5,-40(s0)
    520a0f20:	853e                	mv	a0,a5
    520a0f22:	6426                	ld	s0,72(sp)
    520a0f24:	6161                	addi	sp,sp,80
    520a0f26:	8082                	ret

00000000520a0f28 <_putc>:
    520a0f28:	1101                	addi	sp,sp,-32
    520a0f2a:	ec22                	sd	s0,24(sp)
    520a0f2c:	1000                	addi	s0,sp,32
    520a0f2e:	87aa                	mv	a5,a0
    520a0f30:	feb43023          	sd	a1,-32(s0)
    520a0f34:	fef42623          	sw	a5,-20(s0)
    520a0f38:	fe043783          	ld	a5,-32(s0)
    520a0f3c:	6798                	ld	a4,8(a5)
    520a0f3e:	fe043783          	ld	a5,-32(s0)
    520a0f42:	639c                	ld	a5,0(a5)
    520a0f44:	40f707b3          	sub	a5,a4,a5
    520a0f48:	2781                	sext.w	a5,a5
    520a0f4a:	2785                	addiw	a5,a5,1
    520a0f4c:	0007871b          	sext.w	a4,a5
    520a0f50:	fe043783          	ld	a5,-32(s0)
    520a0f54:	4b9c                	lw	a5,16(a5)
    520a0f56:	00f76463          	bltu	a4,a5,520a0f5e <_putc+0x36>
    520a0f5a:	4781                	li	a5,0
    520a0f5c:	a02d                	j	520a0f86 <_putc+0x5e>
    520a0f5e:	fe043783          	ld	a5,-32(s0)
    520a0f62:	679c                	ld	a5,8(a5)
    520a0f64:	00178693          	addi	a3,a5,1
    520a0f68:	fe043703          	ld	a4,-32(s0)
    520a0f6c:	e714                	sd	a3,8(a4)
    520a0f6e:	fec42703          	lw	a4,-20(s0)
    520a0f72:	0ff77713          	andi	a4,a4,255
    520a0f76:	00e78023          	sb	a4,0(a5)
    520a0f7a:	fe043783          	ld	a5,-32(s0)
    520a0f7e:	679c                	ld	a5,8(a5)
    520a0f80:	00078023          	sb	zero,0(a5)
    520a0f84:	4785                	li	a5,1
    520a0f86:	853e                	mv	a0,a5
    520a0f88:	6462                	ld	s0,24(sp)
    520a0f8a:	6105                	addi	sp,sp,32
    520a0f8c:	8082                	ret

00000000520a0f8e <_puts>:
    520a0f8e:	7139                	addi	sp,sp,-64
    520a0f90:	fc22                	sd	s0,56(sp)
    520a0f92:	0080                	addi	s0,sp,64
    520a0f94:	fca43c23          	sd	a0,-40(s0)
    520a0f98:	87ae                	mv	a5,a1
    520a0f9a:	fcc43423          	sd	a2,-56(s0)
    520a0f9e:	fcf42a23          	sw	a5,-44(s0)
    520a0fa2:	fc843783          	ld	a5,-56(s0)
    520a0fa6:	4b9c                	lw	a5,16(a5)
    520a0fa8:	02079713          	slli	a4,a5,0x20
    520a0fac:	9301                	srli	a4,a4,0x20
    520a0fae:	fc843783          	ld	a5,-56(s0)
    520a0fb2:	6794                	ld	a3,8(a5)
    520a0fb4:	fc843783          	ld	a5,-56(s0)
    520a0fb8:	639c                	ld	a5,0(a5)
    520a0fba:	40f687b3          	sub	a5,a3,a5
    520a0fbe:	8f1d                	sub	a4,a4,a5
    520a0fc0:	fd446783          	lwu	a5,-44(s0)
    520a0fc4:	02e7c463          	blt	a5,a4,520a0fec <_puts+0x5e>
    520a0fc8:	fc843783          	ld	a5,-56(s0)
    520a0fcc:	4b98                	lw	a4,16(a5)
    520a0fce:	fc843783          	ld	a5,-56(s0)
    520a0fd2:	6794                	ld	a3,8(a5)
    520a0fd4:	fc843783          	ld	a5,-56(s0)
    520a0fd8:	639c                	ld	a5,0(a5)
    520a0fda:	40f687b3          	sub	a5,a3,a5
    520a0fde:	2781                	sext.w	a5,a5
    520a0fe0:	40f707bb          	subw	a5,a4,a5
    520a0fe4:	2781                	sext.w	a5,a5
    520a0fe6:	37fd                	addiw	a5,a5,-1
    520a0fe8:	fcf42a23          	sw	a5,-44(s0)
    520a0fec:	fe042623          	sw	zero,-20(s0)
    520a0ff0:	a03d                	j	520a101e <_puts+0x90>
    520a0ff2:	fec46783          	lwu	a5,-20(s0)
    520a0ff6:	fd843703          	ld	a4,-40(s0)
    520a0ffa:	973e                	add	a4,a4,a5
    520a0ffc:	fc843783          	ld	a5,-56(s0)
    520a1000:	679c                	ld	a5,8(a5)
    520a1002:	00178613          	addi	a2,a5,1
    520a1006:	fc843683          	ld	a3,-56(s0)
    520a100a:	e690                	sd	a2,8(a3)
    520a100c:	00074703          	lbu	a4,0(a4)
    520a1010:	00e78023          	sb	a4,0(a5)
    520a1014:	fec42783          	lw	a5,-20(s0)
    520a1018:	2785                	addiw	a5,a5,1
    520a101a:	fef42623          	sw	a5,-20(s0)
    520a101e:	fec42703          	lw	a4,-20(s0)
    520a1022:	fd442783          	lw	a5,-44(s0)
    520a1026:	2701                	sext.w	a4,a4
    520a1028:	2781                	sext.w	a5,a5
    520a102a:	fcf764e3          	bltu	a4,a5,520a0ff2 <_puts+0x64>
    520a102e:	fc843783          	ld	a5,-56(s0)
    520a1032:	679c                	ld	a5,8(a5)
    520a1034:	00078023          	sb	zero,0(a5)
    520a1038:	fd442783          	lw	a5,-44(s0)
    520a103c:	853e                	mv	a0,a5
    520a103e:	7462                	ld	s0,56(sp)
    520a1040:	6121                	addi	sp,sp,64
    520a1042:	8082                	ret

00000000520a1044 <mini_vsnprintf>:
    520a1044:	7119                	addi	sp,sp,-128
    520a1046:	fc86                	sd	ra,120(sp)
    520a1048:	f8a2                	sd	s0,112(sp)
    520a104a:	0100                	addi	s0,sp,128
    520a104c:	f8a43c23          	sd	a0,-104(s0)
    520a1050:	87ae                	mv	a5,a1
    520a1052:	f8c43423          	sd	a2,-120(s0)
    520a1056:	f8d43023          	sd	a3,-128(s0)
    520a105a:	f8f42a23          	sw	a5,-108(s0)
    520a105e:	f9843783          	ld	a5,-104(s0)
    520a1062:	fcf43023          	sd	a5,-64(s0)
    520a1066:	f9843783          	ld	a5,-104(s0)
    520a106a:	fcf43423          	sd	a5,-56(s0)
    520a106e:	f9442783          	lw	a5,-108(s0)
    520a1072:	fcf42823          	sw	a5,-48(s0)
    520a1076:	a4f9                	j	520a1344 <mini_vsnprintf+0x300>
    520a1078:	fc843703          	ld	a4,-56(s0)
    520a107c:	fc043783          	ld	a5,-64(s0)
    520a1080:	40f707b3          	sub	a5,a4,a5
    520a1084:	2781                	sext.w	a5,a5
    520a1086:	2785                	addiw	a5,a5,1
    520a1088:	0007871b          	sext.w	a4,a5
    520a108c:	fd042783          	lw	a5,-48(s0)
    520a1090:	2cf77b63          	bgeu	a4,a5,520a1366 <mini_vsnprintf+0x322>
    520a1094:	fef44783          	lbu	a5,-17(s0)
    520a1098:	0ff7f713          	andi	a4,a5,255
    520a109c:	02500793          	li	a5,37
    520a10a0:	00f70c63          	beq	a4,a5,520a10b8 <mini_vsnprintf+0x74>
    520a10a4:	fef44783          	lbu	a5,-17(s0)
    520a10a8:	2781                	sext.w	a5,a5
    520a10aa:	fc040713          	addi	a4,s0,-64
    520a10ae:	85ba                	mv	a1,a4
    520a10b0:	853e                	mv	a0,a5
    520a10b2:	e77ff0ef          	jal	ra,520a0f28 <_putc>
    520a10b6:	a479                	j	520a1344 <mini_vsnprintf+0x300>
    520a10b8:	fe040723          	sb	zero,-18(s0)
    520a10bc:	fe042423          	sw	zero,-24(s0)
    520a10c0:	f8843783          	ld	a5,-120(s0)
    520a10c4:	00178713          	addi	a4,a5,1
    520a10c8:	f8e43423          	sd	a4,-120(s0)
    520a10cc:	0007c783          	lbu	a5,0(a5)
    520a10d0:	fef407a3          	sb	a5,-17(s0)
    520a10d4:	fef44783          	lbu	a5,-17(s0)
    520a10d8:	0ff7f713          	andi	a4,a5,255
    520a10dc:	03000793          	li	a5,48
    520a10e0:	06f71b63          	bne	a4,a5,520a1156 <mini_vsnprintf+0x112>
    520a10e4:	a891                	j	520a1138 <mini_vsnprintf+0xf4>
    520a10e6:	fef44783          	lbu	a5,-17(s0)
    520a10ea:	0ff7f793          	andi	a5,a5,255
    520a10ee:	26078e63          	beqz	a5,520a136a <mini_vsnprintf+0x326>
    520a10f2:	fef44783          	lbu	a5,-17(s0)
    520a10f6:	0ff7f713          	andi	a4,a5,255
    520a10fa:	02f00793          	li	a5,47
    520a10fe:	04e7fc63          	bgeu	a5,a4,520a1156 <mini_vsnprintf+0x112>
    520a1102:	fef44783          	lbu	a5,-17(s0)
    520a1106:	0ff7f713          	andi	a4,a5,255
    520a110a:	03900793          	li	a5,57
    520a110e:	04e7e463          	bltu	a5,a4,520a1156 <mini_vsnprintf+0x112>
    520a1112:	fee44703          	lbu	a4,-18(s0)
    520a1116:	87ba                	mv	a5,a4
    520a1118:	0027979b          	slliw	a5,a5,0x2
    520a111c:	9fb9                	addw	a5,a5,a4
    520a111e:	0017979b          	slliw	a5,a5,0x1
    520a1122:	0ff7f793          	andi	a5,a5,255
    520a1126:	fef44703          	lbu	a4,-17(s0)
    520a112a:	9fb9                	addw	a5,a5,a4
    520a112c:	0ff7f793          	andi	a5,a5,255
    520a1130:	fd07879b          	addiw	a5,a5,-48
    520a1134:	fef40723          	sb	a5,-18(s0)
    520a1138:	f8843783          	ld	a5,-120(s0)
    520a113c:	00178713          	addi	a4,a5,1
    520a1140:	f8e43423          	sd	a4,-120(s0)
    520a1144:	0007c783          	lbu	a5,0(a5)
    520a1148:	fef407a3          	sb	a5,-17(s0)
    520a114c:	fef44783          	lbu	a5,-17(s0)
    520a1150:	0ff7f793          	andi	a5,a5,255
    520a1154:	fbc9                	bnez	a5,520a10e6 <mini_vsnprintf+0xa2>
    520a1156:	fef44783          	lbu	a5,-17(s0)
    520a115a:	0ff7f713          	andi	a4,a5,255
    520a115e:	06c00793          	li	a5,108
    520a1162:	00f71f63          	bne	a4,a5,520a1180 <mini_vsnprintf+0x13c>
    520a1166:	4785                	li	a5,1
    520a1168:	fef42423          	sw	a5,-24(s0)
    520a116c:	f8843783          	ld	a5,-120(s0)
    520a1170:	00178713          	addi	a4,a5,1
    520a1174:	f8e43423          	sd	a4,-120(s0)
    520a1178:	0007c783          	lbu	a5,0(a5)
    520a117c:	fef407a3          	sb	a5,-17(s0)
    520a1180:	fef44783          	lbu	a5,-17(s0)
    520a1184:	2781                	sext.w	a5,a5
    520a1186:	1e078463          	beqz	a5,520a136e <mini_vsnprintf+0x32a>
    520a118a:	873e                	mv	a4,a5
    520a118c:	1a074263          	bltz	a4,520a1330 <mini_vsnprintf+0x2ec>
    520a1190:	86be                	mv	a3,a5
    520a1192:	07800713          	li	a4,120
    520a1196:	18d74d63          	blt	a4,a3,520a1330 <mini_vsnprintf+0x2ec>
    520a119a:	86be                	mv	a3,a5
    520a119c:	05800713          	li	a4,88
    520a11a0:	18e6c863          	blt	a3,a4,520a1330 <mini_vsnprintf+0x2ec>
    520a11a4:	fa87869b          	addiw	a3,a5,-88
    520a11a8:	0006871b          	sext.w	a4,a3
    520a11ac:	02000793          	li	a5,32
    520a11b0:	18e7e063          	bltu	a5,a4,520a1330 <mini_vsnprintf+0x2ec>
    520a11b4:	02069793          	slli	a5,a3,0x20
    520a11b8:	9381                	srli	a5,a5,0x20
    520a11ba:	00279713          	slli	a4,a5,0x2
    520a11be:	00000797          	auipc	a5,0x0
    520a11c2:	6e678793          	addi	a5,a5,1766 # 520a18a4 <strrev+0xfe>
    520a11c6:	97ba                	add	a5,a5,a4
    520a11c8:	439c                	lw	a5,0(a5)
    520a11ca:	0007871b          	sext.w	a4,a5
    520a11ce:	00000797          	auipc	a5,0x0
    520a11d2:	6d678793          	addi	a5,a5,1750 # 520a18a4 <strrev+0xfe>
    520a11d6:	97ba                	add	a5,a5,a4
    520a11d8:	8782                	jr	a5
    520a11da:	4785                	li	a5,1
    520a11dc:	fef42423          	sw	a5,-24(s0)
    520a11e0:	a295                	j	520a1344 <mini_vsnprintf+0x300>
    520a11e2:	fe842783          	lw	a5,-24(s0)
    520a11e6:	2781                	sext.w	a5,a5
    520a11e8:	ef81                	bnez	a5,520a1200 <mini_vsnprintf+0x1bc>
    520a11ea:	f8043783          	ld	a5,-128(s0)
    520a11ee:	00878713          	addi	a4,a5,8
    520a11f2:	f8e43023          	sd	a4,-128(s0)
    520a11f6:	439c                	lw	a5,0(a5)
    520a11f8:	02079513          	slli	a0,a5,0x20
    520a11fc:	9101                	srli	a0,a0,0x20
    520a11fe:	a809                	j	520a1210 <mini_vsnprintf+0x1cc>
    520a1200:	f8043783          	ld	a5,-128(s0)
    520a1204:	00878713          	addi	a4,a5,8
    520a1208:	f8e43023          	sd	a4,-128(s0)
    520a120c:	639c                	ld	a5,0(a5)
    520a120e:	853e                	mv	a0,a5
    520a1210:	fef44783          	lbu	a5,-17(s0)
    520a1214:	0007871b          	sext.w	a4,a5
    520a1218:	07500793          	li	a5,117
    520a121c:	40f707b3          	sub	a5,a4,a5
    520a1220:	0017b793          	seqz	a5,a5
    520a1224:	0ff7f793          	andi	a5,a5,255
    520a1228:	0007869b          	sext.w	a3,a5
    520a122c:	fee44783          	lbu	a5,-18(s0)
    520a1230:	2781                	sext.w	a5,a5
    520a1232:	fa840713          	addi	a4,s0,-88
    520a1236:	4601                	li	a2,0
    520a1238:	45a9                	li	a1,10
    520a123a:	affff0ef          	jal	ra,520a0d38 <mini_itoa>
    520a123e:	87aa                	mv	a5,a0
    520a1240:	fcf42e23          	sw	a5,-36(s0)
    520a1244:	fc040693          	addi	a3,s0,-64
    520a1248:	fdc42703          	lw	a4,-36(s0)
    520a124c:	fa840793          	addi	a5,s0,-88
    520a1250:	8636                	mv	a2,a3
    520a1252:	85ba                	mv	a1,a4
    520a1254:	853e                	mv	a0,a5
    520a1256:	d39ff0ef          	jal	ra,520a0f8e <_puts>
    520a125a:	fe042423          	sw	zero,-24(s0)
    520a125e:	a0dd                	j	520a1344 <mini_vsnprintf+0x300>
    520a1260:	fe842783          	lw	a5,-24(s0)
    520a1264:	2781                	sext.w	a5,a5
    520a1266:	ef81                	bnez	a5,520a127e <mini_vsnprintf+0x23a>
    520a1268:	f8043783          	ld	a5,-128(s0)
    520a126c:	00878713          	addi	a4,a5,8
    520a1270:	f8e43023          	sd	a4,-128(s0)
    520a1274:	439c                	lw	a5,0(a5)
    520a1276:	02079513          	slli	a0,a5,0x20
    520a127a:	9101                	srli	a0,a0,0x20
    520a127c:	a809                	j	520a128e <mini_vsnprintf+0x24a>
    520a127e:	f8043783          	ld	a5,-128(s0)
    520a1282:	00878713          	addi	a4,a5,8
    520a1286:	f8e43023          	sd	a4,-128(s0)
    520a128a:	639c                	ld	a5,0(a5)
    520a128c:	853e                	mv	a0,a5
    520a128e:	fef44783          	lbu	a5,-17(s0)
    520a1292:	0007871b          	sext.w	a4,a5
    520a1296:	05800793          	li	a5,88
    520a129a:	40f707b3          	sub	a5,a4,a5
    520a129e:	0017b793          	seqz	a5,a5
    520a12a2:	0ff7f793          	andi	a5,a5,255
    520a12a6:	0007861b          	sext.w	a2,a5
    520a12aa:	fee44783          	lbu	a5,-18(s0)
    520a12ae:	2781                	sext.w	a5,a5
    520a12b0:	fa840713          	addi	a4,s0,-88
    520a12b4:	4685                	li	a3,1
    520a12b6:	45c1                	li	a1,16
    520a12b8:	a81ff0ef          	jal	ra,520a0d38 <mini_itoa>
    520a12bc:	87aa                	mv	a5,a0
    520a12be:	fcf42e23          	sw	a5,-36(s0)
    520a12c2:	fc040693          	addi	a3,s0,-64
    520a12c6:	fdc42703          	lw	a4,-36(s0)
    520a12ca:	fa840793          	addi	a5,s0,-88
    520a12ce:	8636                	mv	a2,a3
    520a12d0:	85ba                	mv	a1,a4
    520a12d2:	853e                	mv	a0,a5
    520a12d4:	cbbff0ef          	jal	ra,520a0f8e <_puts>
    520a12d8:	fe042423          	sw	zero,-24(s0)
    520a12dc:	a0a5                	j	520a1344 <mini_vsnprintf+0x300>
    520a12de:	f8043783          	ld	a5,-128(s0)
    520a12e2:	00878713          	addi	a4,a5,8
    520a12e6:	f8e43023          	sd	a4,-128(s0)
    520a12ea:	439c                	lw	a5,0(a5)
    520a12ec:	0ff7f793          	andi	a5,a5,255
    520a12f0:	2781                	sext.w	a5,a5
    520a12f2:	fc040713          	addi	a4,s0,-64
    520a12f6:	85ba                	mv	a1,a4
    520a12f8:	853e                	mv	a0,a5
    520a12fa:	c2fff0ef          	jal	ra,520a0f28 <_putc>
    520a12fe:	a099                	j	520a1344 <mini_vsnprintf+0x300>
    520a1300:	f8043783          	ld	a5,-128(s0)
    520a1304:	00878713          	addi	a4,a5,8
    520a1308:	f8e43023          	sd	a4,-128(s0)
    520a130c:	639c                	ld	a5,0(a5)
    520a130e:	fef43023          	sd	a5,-32(s0)
    520a1312:	fe043503          	ld	a0,-32(s0)
    520a1316:	1fa000ef          	jal	ra,520a1510 <strlen>
    520a131a:	87aa                	mv	a5,a0
    520a131c:	2781                	sext.w	a5,a5
    520a131e:	fc040713          	addi	a4,s0,-64
    520a1322:	863a                	mv	a2,a4
    520a1324:	85be                	mv	a1,a5
    520a1326:	fe043503          	ld	a0,-32(s0)
    520a132a:	c65ff0ef          	jal	ra,520a0f8e <_puts>
    520a132e:	a819                	j	520a1344 <mini_vsnprintf+0x300>
    520a1330:	fef44783          	lbu	a5,-17(s0)
    520a1334:	2781                	sext.w	a5,a5
    520a1336:	fc040713          	addi	a4,s0,-64
    520a133a:	85ba                	mv	a1,a4
    520a133c:	853e                	mv	a0,a5
    520a133e:	bebff0ef          	jal	ra,520a0f28 <_putc>
    520a1342:	0001                	nop
    520a1344:	f8843783          	ld	a5,-120(s0)
    520a1348:	00178713          	addi	a4,a5,1
    520a134c:	f8e43423          	sd	a4,-120(s0)
    520a1350:	0007c783          	lbu	a5,0(a5)
    520a1354:	fef407a3          	sb	a5,-17(s0)
    520a1358:	fef44783          	lbu	a5,-17(s0)
    520a135c:	0ff7f793          	andi	a5,a5,255
    520a1360:	d0079ce3          	bnez	a5,520a1078 <mini_vsnprintf+0x34>
    520a1364:	a031                	j	520a1370 <mini_vsnprintf+0x32c>
    520a1366:	0001                	nop
    520a1368:	a021                	j	520a1370 <mini_vsnprintf+0x32c>
    520a136a:	0001                	nop
    520a136c:	a011                	j	520a1370 <mini_vsnprintf+0x32c>
    520a136e:	0001                	nop
    520a1370:	fc843703          	ld	a4,-56(s0)
    520a1374:	fc043783          	ld	a5,-64(s0)
    520a1378:	40f707b3          	sub	a5,a4,a5
    520a137c:	2781                	sext.w	a5,a5
    520a137e:	853e                	mv	a0,a5
    520a1380:	70e6                	ld	ra,120(sp)
    520a1382:	7446                	ld	s0,112(sp)
    520a1384:	6109                	addi	sp,sp,128
    520a1386:	8082                	ret

00000000520a1388 <vprintf>:
    520a1388:	7169                	addi	sp,sp,-304
    520a138a:	f606                	sd	ra,296(sp)
    520a138c:	f222                	sd	s0,288(sp)
    520a138e:	1a00                	addi	s0,sp,304
    520a1390:	eca43c23          	sd	a0,-296(s0)
    520a1394:	ecb43823          	sd	a1,-304(s0)
    520a1398:	ed043783          	ld	a5,-304(s0)
    520a139c:	fef43023          	sd	a5,-32(s0)
    520a13a0:	fe043703          	ld	a4,-32(s0)
    520a13a4:	ee040793          	addi	a5,s0,-288
    520a13a8:	86ba                	mv	a3,a4
    520a13aa:	ed843603          	ld	a2,-296(s0)
    520a13ae:	10000593          	li	a1,256
    520a13b2:	853e                	mv	a0,a5
    520a13b4:	c91ff0ef          	jal	ra,520a1044 <mini_vsnprintf>
    520a13b8:	87aa                	mv	a5,a0
    520a13ba:	fef42623          	sw	a5,-20(s0)
    520a13be:	fec42783          	lw	a5,-20(s0)
    520a13c2:	ff040713          	addi	a4,s0,-16
    520a13c6:	97ba                	add	a5,a5,a4
    520a13c8:	ee078823          	sb	zero,-272(a5)
    520a13cc:	ee040793          	addi	a5,s0,-288
    520a13d0:	853e                	mv	a0,a5
    520a13d2:	fb7fe0ef          	jal	ra,520a0388 <sys_write>
    520a13d6:	fdbfe0ef          	jal	ra,520a03b0 <sys_reflush>
    520a13da:	fec42783          	lw	a5,-20(s0)
    520a13de:	853e                	mv	a0,a5
    520a13e0:	70b2                	ld	ra,296(sp)
    520a13e2:	7412                	ld	s0,288(sp)
    520a13e4:	6155                	addi	sp,sp,304
    520a13e6:	8082                	ret

00000000520a13e8 <printf>:
    520a13e8:	7159                	addi	sp,sp,-112
    520a13ea:	f406                	sd	ra,40(sp)
    520a13ec:	f022                	sd	s0,32(sp)
    520a13ee:	1800                	addi	s0,sp,48
    520a13f0:	fca43c23          	sd	a0,-40(s0)
    520a13f4:	e40c                	sd	a1,8(s0)
    520a13f6:	e810                	sd	a2,16(s0)
    520a13f8:	ec14                	sd	a3,24(s0)
    520a13fa:	f018                	sd	a4,32(s0)
    520a13fc:	f41c                	sd	a5,40(s0)
    520a13fe:	03043823          	sd	a6,48(s0)
    520a1402:	03143c23          	sd	a7,56(s0)
    520a1406:	fe042623          	sw	zero,-20(s0)
    520a140a:	04040793          	addi	a5,s0,64
    520a140e:	fcf43823          	sd	a5,-48(s0)
    520a1412:	fd043783          	ld	a5,-48(s0)
    520a1416:	fc878793          	addi	a5,a5,-56
    520a141a:	fef43023          	sd	a5,-32(s0)
    520a141e:	fe043783          	ld	a5,-32(s0)
    520a1422:	85be                	mv	a1,a5
    520a1424:	fd843503          	ld	a0,-40(s0)
    520a1428:	f61ff0ef          	jal	ra,520a1388 <vprintf>
    520a142c:	87aa                	mv	a5,a0
    520a142e:	fef42623          	sw	a5,-20(s0)
    520a1432:	fec42783          	lw	a5,-20(s0)
    520a1436:	853e                	mv	a0,a5
    520a1438:	70a2                	ld	ra,40(sp)
    520a143a:	7402                	ld	s0,32(sp)
    520a143c:	6165                	addi	sp,sp,112
    520a143e:	8082                	ret

00000000520a1440 <memcpy>:
    520a1440:	7179                	addi	sp,sp,-48
    520a1442:	f422                	sd	s0,40(sp)
    520a1444:	1800                	addi	s0,sp,48
    520a1446:	fea43423          	sd	a0,-24(s0)
    520a144a:	feb43023          	sd	a1,-32(s0)
    520a144e:	87b2                	mv	a5,a2
    520a1450:	fcf42e23          	sw	a5,-36(s0)
    520a1454:	a035                	j	520a1480 <memcpy+0x40>
    520a1456:	fe043703          	ld	a4,-32(s0)
    520a145a:	00170793          	addi	a5,a4,1
    520a145e:	fef43023          	sd	a5,-32(s0)
    520a1462:	fe843783          	ld	a5,-24(s0)
    520a1466:	00178693          	addi	a3,a5,1
    520a146a:	fed43423          	sd	a3,-24(s0)
    520a146e:	00074703          	lbu	a4,0(a4)
    520a1472:	00e78023          	sb	a4,0(a5)
    520a1476:	fdc42783          	lw	a5,-36(s0)
    520a147a:	37fd                	addiw	a5,a5,-1
    520a147c:	fcf42e23          	sw	a5,-36(s0)
    520a1480:	fdc42783          	lw	a5,-36(s0)
    520a1484:	2781                	sext.w	a5,a5
    520a1486:	fbe1                	bnez	a5,520a1456 <memcpy+0x16>
    520a1488:	0001                	nop
    520a148a:	0001                	nop
    520a148c:	7422                	ld	s0,40(sp)
    520a148e:	6145                	addi	sp,sp,48
    520a1490:	8082                	ret

00000000520a1492 <memset>:
    520a1492:	7179                	addi	sp,sp,-48
    520a1494:	f422                	sd	s0,40(sp)
    520a1496:	1800                	addi	s0,sp,48
    520a1498:	fca43c23          	sd	a0,-40(s0)
    520a149c:	87ae                	mv	a5,a1
    520a149e:	8732                	mv	a4,a2
    520a14a0:	fcf40ba3          	sb	a5,-41(s0)
    520a14a4:	87ba                	mv	a5,a4
    520a14a6:	fcf42823          	sw	a5,-48(s0)
    520a14aa:	fd843783          	ld	a5,-40(s0)
    520a14ae:	fef43423          	sd	a5,-24(s0)
    520a14b2:	a005                	j	520a14d2 <memset+0x40>
    520a14b4:	fe843783          	ld	a5,-24(s0)
    520a14b8:	00178713          	addi	a4,a5,1
    520a14bc:	fee43423          	sd	a4,-24(s0)
    520a14c0:	fd744703          	lbu	a4,-41(s0)
    520a14c4:	00e78023          	sb	a4,0(a5)
    520a14c8:	fd042783          	lw	a5,-48(s0)
    520a14cc:	37fd                	addiw	a5,a5,-1
    520a14ce:	fcf42823          	sw	a5,-48(s0)
    520a14d2:	fd042783          	lw	a5,-48(s0)
    520a14d6:	2781                	sext.w	a5,a5
    520a14d8:	fff1                	bnez	a5,520a14b4 <memset+0x22>
    520a14da:	0001                	nop
    520a14dc:	0001                	nop
    520a14de:	7422                	ld	s0,40(sp)
    520a14e0:	6145                	addi	sp,sp,48
    520a14e2:	8082                	ret

00000000520a14e4 <bzero>:
    520a14e4:	1101                	addi	sp,sp,-32
    520a14e6:	ec06                	sd	ra,24(sp)
    520a14e8:	e822                	sd	s0,16(sp)
    520a14ea:	1000                	addi	s0,sp,32
    520a14ec:	fea43423          	sd	a0,-24(s0)
    520a14f0:	87ae                	mv	a5,a1
    520a14f2:	fef42223          	sw	a5,-28(s0)
    520a14f6:	fe442783          	lw	a5,-28(s0)
    520a14fa:	863e                	mv	a2,a5
    520a14fc:	4581                	li	a1,0
    520a14fe:	fe843503          	ld	a0,-24(s0)
    520a1502:	f91ff0ef          	jal	ra,520a1492 <memset>
    520a1506:	0001                	nop
    520a1508:	60e2                	ld	ra,24(sp)
    520a150a:	6442                	ld	s0,16(sp)
    520a150c:	6105                	addi	sp,sp,32
    520a150e:	8082                	ret

00000000520a1510 <strlen>:
    520a1510:	7179                	addi	sp,sp,-48
    520a1512:	f422                	sd	s0,40(sp)
    520a1514:	1800                	addi	s0,sp,48
    520a1516:	fca43c23          	sd	a0,-40(s0)
    520a151a:	fe042623          	sw	zero,-20(s0)
    520a151e:	a031                	j	520a152a <strlen+0x1a>
    520a1520:	fec42783          	lw	a5,-20(s0)
    520a1524:	2785                	addiw	a5,a5,1
    520a1526:	fef42623          	sw	a5,-20(s0)
    520a152a:	fec42783          	lw	a5,-20(s0)
    520a152e:	fd843703          	ld	a4,-40(s0)
    520a1532:	97ba                	add	a5,a5,a4
    520a1534:	0007c783          	lbu	a5,0(a5)
    520a1538:	f7e5                	bnez	a5,520a1520 <strlen+0x10>
    520a153a:	fec42783          	lw	a5,-20(s0)
    520a153e:	853e                	mv	a0,a5
    520a1540:	7422                	ld	s0,40(sp)
    520a1542:	6145                	addi	sp,sp,48
    520a1544:	8082                	ret

00000000520a1546 <strcmp>:
    520a1546:	1101                	addi	sp,sp,-32
    520a1548:	ec22                	sd	s0,24(sp)
    520a154a:	1000                	addi	s0,sp,32
    520a154c:	fea43423          	sd	a0,-24(s0)
    520a1550:	feb43023          	sd	a1,-32(s0)
    520a1554:	a0a1                	j	520a159c <strcmp+0x56>
    520a1556:	fe843783          	ld	a5,-24(s0)
    520a155a:	0007c703          	lbu	a4,0(a5)
    520a155e:	fe043783          	ld	a5,-32(s0)
    520a1562:	0007c783          	lbu	a5,0(a5)
    520a1566:	02f70163          	beq	a4,a5,520a1588 <strcmp+0x42>
    520a156a:	fe843783          	ld	a5,-24(s0)
    520a156e:	0007c783          	lbu	a5,0(a5)
    520a1572:	0007871b          	sext.w	a4,a5
    520a1576:	fe043783          	ld	a5,-32(s0)
    520a157a:	0007c783          	lbu	a5,0(a5)
    520a157e:	2781                	sext.w	a5,a5
    520a1580:	40f707bb          	subw	a5,a4,a5
    520a1584:	2781                	sext.w	a5,a5
    520a1586:	a099                	j	520a15cc <strcmp+0x86>
    520a1588:	fe843783          	ld	a5,-24(s0)
    520a158c:	0785                	addi	a5,a5,1
    520a158e:	fef43423          	sd	a5,-24(s0)
    520a1592:	fe043783          	ld	a5,-32(s0)
    520a1596:	0785                	addi	a5,a5,1
    520a1598:	fef43023          	sd	a5,-32(s0)
    520a159c:	fe843783          	ld	a5,-24(s0)
    520a15a0:	0007c783          	lbu	a5,0(a5)
    520a15a4:	c791                	beqz	a5,520a15b0 <strcmp+0x6a>
    520a15a6:	fe043783          	ld	a5,-32(s0)
    520a15aa:	0007c783          	lbu	a5,0(a5)
    520a15ae:	f7c5                	bnez	a5,520a1556 <strcmp+0x10>
    520a15b0:	fe843783          	ld	a5,-24(s0)
    520a15b4:	0007c783          	lbu	a5,0(a5)
    520a15b8:	0007871b          	sext.w	a4,a5
    520a15bc:	fe043783          	ld	a5,-32(s0)
    520a15c0:	0007c783          	lbu	a5,0(a5)
    520a15c4:	2781                	sext.w	a5,a5
    520a15c6:	40f707bb          	subw	a5,a4,a5
    520a15ca:	2781                	sext.w	a5,a5
    520a15cc:	853e                	mv	a0,a5
    520a15ce:	6462                	ld	s0,24(sp)
    520a15d0:	6105                	addi	sp,sp,32
    520a15d2:	8082                	ret

00000000520a15d4 <strncmp>:
    520a15d4:	7139                	addi	sp,sp,-64
    520a15d6:	fc22                	sd	s0,56(sp)
    520a15d8:	0080                	addi	s0,sp,64
    520a15da:	fca43c23          	sd	a0,-40(s0)
    520a15de:	fcb43823          	sd	a1,-48(s0)
    520a15e2:	87b2                	mv	a5,a2
    520a15e4:	fcf42623          	sw	a5,-52(s0)
    520a15e8:	fe042623          	sw	zero,-20(s0)
    520a15ec:	a8a1                	j	520a1644 <strncmp+0x70>
    520a15ee:	fec42783          	lw	a5,-20(s0)
    520a15f2:	fd843703          	ld	a4,-40(s0)
    520a15f6:	97ba                	add	a5,a5,a4
    520a15f8:	0007c683          	lbu	a3,0(a5)
    520a15fc:	fec42783          	lw	a5,-20(s0)
    520a1600:	fd043703          	ld	a4,-48(s0)
    520a1604:	97ba                	add	a5,a5,a4
    520a1606:	0007c783          	lbu	a5,0(a5)
    520a160a:	8736                	mv	a4,a3
    520a160c:	02f70763          	beq	a4,a5,520a163a <strncmp+0x66>
    520a1610:	fec42783          	lw	a5,-20(s0)
    520a1614:	fd843703          	ld	a4,-40(s0)
    520a1618:	97ba                	add	a5,a5,a4
    520a161a:	0007c783          	lbu	a5,0(a5)
    520a161e:	0007871b          	sext.w	a4,a5
    520a1622:	fec42783          	lw	a5,-20(s0)
    520a1626:	fd043683          	ld	a3,-48(s0)
    520a162a:	97b6                	add	a5,a5,a3
    520a162c:	0007c783          	lbu	a5,0(a5)
    520a1630:	2781                	sext.w	a5,a5
    520a1632:	40f707bb          	subw	a5,a4,a5
    520a1636:	2781                	sext.w	a5,a5
    520a1638:	a839                	j	520a1656 <strncmp+0x82>
    520a163a:	fec42783          	lw	a5,-20(s0)
    520a163e:	2785                	addiw	a5,a5,1
    520a1640:	fef42623          	sw	a5,-20(s0)
    520a1644:	fec42703          	lw	a4,-20(s0)
    520a1648:	fcc42783          	lw	a5,-52(s0)
    520a164c:	2701                	sext.w	a4,a4
    520a164e:	2781                	sext.w	a5,a5
    520a1650:	f8f74fe3          	blt	a4,a5,520a15ee <strncmp+0x1a>
    520a1654:	4781                	li	a5,0
    520a1656:	853e                	mv	a0,a5
    520a1658:	7462                	ld	s0,56(sp)
    520a165a:	6121                	addi	sp,sp,64
    520a165c:	8082                	ret

00000000520a165e <strcpy>:
    520a165e:	7179                	addi	sp,sp,-48
    520a1660:	f422                	sd	s0,40(sp)
    520a1662:	1800                	addi	s0,sp,48
    520a1664:	fca43c23          	sd	a0,-40(s0)
    520a1668:	fcb43823          	sd	a1,-48(s0)
    520a166c:	fd843783          	ld	a5,-40(s0)
    520a1670:	fef43423          	sd	a5,-24(s0)
    520a1674:	a00d                	j	520a1696 <strcpy+0x38>
    520a1676:	fd043703          	ld	a4,-48(s0)
    520a167a:	00170793          	addi	a5,a4,1
    520a167e:	fcf43823          	sd	a5,-48(s0)
    520a1682:	fd843783          	ld	a5,-40(s0)
    520a1686:	00178693          	addi	a3,a5,1
    520a168a:	fcd43c23          	sd	a3,-40(s0)
    520a168e:	00074703          	lbu	a4,0(a4)
    520a1692:	00e78023          	sb	a4,0(a5)
    520a1696:	fd043783          	ld	a5,-48(s0)
    520a169a:	0007c783          	lbu	a5,0(a5)
    520a169e:	ffe1                	bnez	a5,520a1676 <strcpy+0x18>
    520a16a0:	fd843783          	ld	a5,-40(s0)
    520a16a4:	00078023          	sb	zero,0(a5)
    520a16a8:	fe843783          	ld	a5,-24(s0)
    520a16ac:	853e                	mv	a0,a5
    520a16ae:	7422                	ld	s0,40(sp)
    520a16b0:	6145                	addi	sp,sp,48
    520a16b2:	8082                	ret

00000000520a16b4 <strncpy>:
    520a16b4:	7139                	addi	sp,sp,-64
    520a16b6:	fc22                	sd	s0,56(sp)
    520a16b8:	0080                	addi	s0,sp,64
    520a16ba:	fca43c23          	sd	a0,-40(s0)
    520a16be:	fcb43823          	sd	a1,-48(s0)
    520a16c2:	87b2                	mv	a5,a2
    520a16c4:	fcf42623          	sw	a5,-52(s0)
    520a16c8:	fd843783          	ld	a5,-40(s0)
    520a16cc:	fef43423          	sd	a5,-24(s0)
    520a16d0:	a00d                	j	520a16f2 <strncpy+0x3e>
    520a16d2:	fd043703          	ld	a4,-48(s0)
    520a16d6:	00170793          	addi	a5,a4,1
    520a16da:	fcf43823          	sd	a5,-48(s0)
    520a16de:	fd843783          	ld	a5,-40(s0)
    520a16e2:	00178693          	addi	a3,a5,1
    520a16e6:	fcd43c23          	sd	a3,-40(s0)
    520a16ea:	00074703          	lbu	a4,0(a4)
    520a16ee:	00e78023          	sb	a4,0(a5)
    520a16f2:	fd043783          	ld	a5,-48(s0)
    520a16f6:	0007c783          	lbu	a5,0(a5)
    520a16fa:	c395                	beqz	a5,520a171e <strncpy+0x6a>
    520a16fc:	fcc42783          	lw	a5,-52(s0)
    520a1700:	fff7871b          	addiw	a4,a5,-1
    520a1704:	fce42623          	sw	a4,-52(s0)
    520a1708:	fcf045e3          	bgtz	a5,520a16d2 <strncpy+0x1e>
    520a170c:	a809                	j	520a171e <strncpy+0x6a>
    520a170e:	fd843783          	ld	a5,-40(s0)
    520a1712:	00178713          	addi	a4,a5,1
    520a1716:	fce43c23          	sd	a4,-40(s0)
    520a171a:	00078023          	sb	zero,0(a5)
    520a171e:	fcc42783          	lw	a5,-52(s0)
    520a1722:	fff7871b          	addiw	a4,a5,-1
    520a1726:	fce42623          	sw	a4,-52(s0)
    520a172a:	fef042e3          	bgtz	a5,520a170e <strncpy+0x5a>
    520a172e:	fe843783          	ld	a5,-24(s0)
    520a1732:	853e                	mv	a0,a5
    520a1734:	7462                	ld	s0,56(sp)
    520a1736:	6121                	addi	sp,sp,64
    520a1738:	8082                	ret

00000000520a173a <strcat>:
    520a173a:	7179                	addi	sp,sp,-48
    520a173c:	f422                	sd	s0,40(sp)
    520a173e:	1800                	addi	s0,sp,48
    520a1740:	fca43c23          	sd	a0,-40(s0)
    520a1744:	fcb43823          	sd	a1,-48(s0)
    520a1748:	fd843783          	ld	a5,-40(s0)
    520a174c:	fef43423          	sd	a5,-24(s0)
    520a1750:	a031                	j	520a175c <strcat+0x22>
    520a1752:	fd843783          	ld	a5,-40(s0)
    520a1756:	0785                	addi	a5,a5,1
    520a1758:	fcf43c23          	sd	a5,-40(s0)
    520a175c:	fd843783          	ld	a5,-40(s0)
    520a1760:	0007c783          	lbu	a5,0(a5)
    520a1764:	f7fd                	bnez	a5,520a1752 <strcat+0x18>
    520a1766:	a00d                	j	520a1788 <strcat+0x4e>
    520a1768:	fd043703          	ld	a4,-48(s0)
    520a176c:	00170793          	addi	a5,a4,1
    520a1770:	fcf43823          	sd	a5,-48(s0)
    520a1774:	fd843783          	ld	a5,-40(s0)
    520a1778:	00178693          	addi	a3,a5,1
    520a177c:	fcd43c23          	sd	a3,-40(s0)
    520a1780:	00074703          	lbu	a4,0(a4)
    520a1784:	00e78023          	sb	a4,0(a5)
    520a1788:	fd043783          	ld	a5,-48(s0)
    520a178c:	0007c783          	lbu	a5,0(a5)
    520a1790:	ffe1                	bnez	a5,520a1768 <strcat+0x2e>
    520a1792:	fd843783          	ld	a5,-40(s0)
    520a1796:	00078023          	sb	zero,0(a5)
    520a179a:	fe843783          	ld	a5,-24(s0)
    520a179e:	853e                	mv	a0,a5
    520a17a0:	7422                	ld	s0,40(sp)
    520a17a2:	6145                	addi	sp,sp,48
    520a17a4:	8082                	ret

00000000520a17a6 <strrev>:
    520a17a6:	7179                	addi	sp,sp,-48
    520a17a8:	f406                	sd	ra,40(sp)
    520a17aa:	f022                	sd	s0,32(sp)
    520a17ac:	1800                	addi	s0,sp,48
    520a17ae:	fca43c23          	sd	a0,-40(s0)
    520a17b2:	fd843503          	ld	a0,-40(s0)
    520a17b6:	d5bff0ef          	jal	ra,520a1510 <strlen>
    520a17ba:	87aa                	mv	a5,a0
    520a17bc:	fef42223          	sw	a5,-28(s0)
    520a17c0:	fe042623          	sw	zero,-20(s0)
    520a17c4:	fe442783          	lw	a5,-28(s0)
    520a17c8:	37fd                	addiw	a5,a5,-1
    520a17ca:	fef42423          	sw	a5,-24(s0)
    520a17ce:	a899                	j	520a1824 <strrev+0x7e>
    520a17d0:	fec42783          	lw	a5,-20(s0)
    520a17d4:	fd843703          	ld	a4,-40(s0)
    520a17d8:	97ba                	add	a5,a5,a4
    520a17da:	0007c783          	lbu	a5,0(a5)
    520a17de:	fef401a3          	sb	a5,-29(s0)
    520a17e2:	fe842783          	lw	a5,-24(s0)
    520a17e6:	fd843703          	ld	a4,-40(s0)
    520a17ea:	973e                	add	a4,a4,a5
    520a17ec:	fec42783          	lw	a5,-20(s0)
    520a17f0:	fd843683          	ld	a3,-40(s0)
    520a17f4:	97b6                	add	a5,a5,a3
    520a17f6:	00074703          	lbu	a4,0(a4)
    520a17fa:	00e78023          	sb	a4,0(a5)
    520a17fe:	fe842783          	lw	a5,-24(s0)
    520a1802:	fd843703          	ld	a4,-40(s0)
    520a1806:	97ba                	add	a5,a5,a4
    520a1808:	fe344703          	lbu	a4,-29(s0)
    520a180c:	00e78023          	sb	a4,0(a5)
    520a1810:	fec42783          	lw	a5,-20(s0)
    520a1814:	2785                	addiw	a5,a5,1
    520a1816:	fef42623          	sw	a5,-20(s0)
    520a181a:	fe842783          	lw	a5,-24(s0)
    520a181e:	37fd                	addiw	a5,a5,-1
    520a1820:	fef42423          	sw	a5,-24(s0)
    520a1824:	fec42703          	lw	a4,-20(s0)
    520a1828:	fe842783          	lw	a5,-24(s0)
    520a182c:	2701                	sext.w	a4,a4
    520a182e:	2781                	sext.w	a5,a5
    520a1830:	faf740e3          	blt	a4,a5,520a17d0 <strrev+0x2a>
    520a1834:	0001                	nop
    520a1836:	0001                	nop
    520a1838:	70a2                	ld	ra,40(sp)
    520a183a:	7402                	ld	s0,32(sp)
    520a183c:	6145                	addi	sp,sp,48
    520a183e:	8082                	ret
